(dp0
S'16546'
p1
((lp2
(lp3
F95.572
aa(lp4
F1.369
aa(lp5
F54.89
aa(lp6
F30.632920842105584
aF22.53047052380952
aF200.53737472527467
atp7
sS'16079'
p8
((lp9
(lp10
F88.364
aa(lp11
F0.0
aa(lp12
F33.832
aa(lp13
F29.480659568773316
aF0.0
aF61.951335756167865
atp14
sS'16078'
p15
((lp16
(lp17
F90.0
aa(lp18
F100.0
aa(lp19
F80.0
aa(lp20
F0.0
aF0.0
aF0.0
atp21
sS'16343'
p22
((lp23
(lp24
F90.0
aa(lp25
F0.0
aa(lp26
F80.0
aa(lp27
F0.0
aF0.0
aF0.0
atp28
sS'16073'
p29
((lp30
(lp31
F-0.0
aa(lp32
F87.231
aa(lp33
F38.421
aa(lp34
F0.0
aF44.639053307692365
aF97.50692521052639
atp35
sS'16072'
p36
((lp37
(lp38
F87.714
aa(lp39
F36.154
aa(lp40
F0.0
aa(lp41
F40.48979599999999
aF85.20710061538463
aF0.0
atp42
sS'16071'
p43
((lp44
(lp45
F86.333
aa(lp46
F4.286
aa(lp47
F66.667
aa(lp48
F23.222222333333338
aF110.20408171428566
aF55.55555566666666
atp49
sS'16070'
p50
((lp51
(lp52
F90.593
aa(lp53
F0.0
aa(lp54
F65.0
aa(lp55
F5.580293067796588
aF0.0
aF75.0
atp56
sS'16077'
p57
((lp58
(lp59
F50.0
aa(lp60
F73.041
aa(lp61
F21.0
aa(lp62
F0.0
aF51.57142369005853
aF189.0
atp63
sS'16076'
p64
((lp65
(lp66
F90.0
aa(lp67
F80.0
aa(lp68
F90.0
aa(lp69
F0.0
aF0.0
aI0
atp70
sS'16075'
p71
((lp72
(lp73
F90.0
aa(lp74
F90.0
aa(lp75
F90.0
aa(lp76
F0.0
aI0
aI0
atp77
sS'16074'
p78
((lp79
(lp80
F90.0
aa(lp81
F80.0
aa(lp82
F90.0
aa(lp83
F0.0
aF0.0
aI0
atp84
sS'16427'
p85
((lp86
(lp87
F44.813
aa(lp88
F0.269
aa(lp89
F74.058
aa(lp90
F75.10900358213217
aF5.062140951100246
aF58.89519008695655
atp91
sS'16349'
p92
((lp93
(lp94
F80.0
aa(lp95
F90.0
aa(lp96
F70.0
aa(lp97
F0.0
aF0.0
aF0.0
atp98
sS'16348'
p99
((lp100
(lp101
F43.504
aa(lp102
F-0.0
aa(lp103
F76.159
aa(lp104
F87.7200672820514
aF0.0
aF83.07603462318815
atp105
sS'16422'
p106
((lp107
(lp108
F90.0
aa(lp109
F80.0
aa(lp110
F80.0
aa(lp111
F0.0
aF0.0
aI0
atp112
sS'16423'
p113
((lp114
(lp115
F80.0
aa(lp116
F90.0
aa(lp117
F90.0
aa(lp118
F0.0
aF0.0
aI0
atp119
sS'16671'
p120
((lp121
(lp122
F0.38
aa(lp123
F90.0
aa(lp124
F76.19
aa(lp125
F11.248197468354439
aF0.0
aF66.43990952380953
atp126
sS'16670'
p127
((lp128
(lp129
F90.0
aa(lp130
F80.0
aa(lp131
F80.0
aa(lp132
F0.0
aF0.0
aI0
atp133
sS'16673'
p134
((lp135
(lp136
F0.0
aa(lp137
F83.846
aa(lp138
F45.0
aa(lp139
F0.0
aF85.20710061538463
aF75.0
atp140
sS'16672'
p141
((lp142
(lp143
F81.132
aa(lp144
F21.667
aa(lp145
F50.8
aa(lp146
F93.05802777358488
aF180.5555556666667
aF15.359999999999996
atp147
sS'16675'
p148
((lp149
(lp150
F90.0
aa(lp151
F80.0
aa(lp152
F80.0
aa(lp153
F0.0
aF0.0
aI0
atp154
sS'16149'
p155
((lp156
(lp157
F90.0
aa(lp158
F90.0
aa(lp159
F90.0
aa(lp160
F0.0
aI0
aI0
atp161
sS'16677'
p162
((lp163
(lp164
F90.0
aa(lp165
F90.0
aa(lp166
F90.0
aa(lp167
F0.0
aI0
aI0
atp168
sS'16676'
p169
((lp170
(lp171
F89.815
aa(lp172
F0.0
aa(lp173
F30.0
aa(lp174
F1.817558333333337
aF0.0
aF0.0
atp175
sS'16679'
p176
((lp177
(lp178
F90.0
aa(lp179
F90.0
aa(lp180
F90.0
aa(lp181
F0.0
aI0
aI0
atp182
sS'16678'
p183
((lp184
(lp185
F90.0
aa(lp186
F80.0
aa(lp187
F90.0
aa(lp188
F0.0
aF0.0
aI0
atp189
sS'16772'
p190
((lp191
(lp192
F82.857
aa(lp193
F42.5
aa(lp194
F0.0
aa(lp195
F63.26530614285716
aF93.75
aF0.0
atp196
sS'16773'
p197
((lp198
(lp199
F90.0
aa(lp200
F90.0
aa(lp201
F90.0
aa(lp202
F0.0
aI0
aI0
atp203
sS'16774'
p204
((lp205
(lp206
F0.094
aa(lp207
F82.237
aa(lp208
F41.25
aa(lp209
F0.934496377358491
aF92.36495847368411
aF100.9375
atp210
sS'16775'
p211
((lp212
(lp213
F0.0
aa(lp214
F78.382
aa(lp215
F41.313
aa(lp216
F0.0
aF90.03027694117652
aF98.2756861717173
atp217
sS'16776'
p218
((lp219
(lp220
F80.0
aa(lp221
F90.0
aa(lp222
F90.0
aa(lp223
F0.0
aI0
aF0.0
atp224
sS'16777'
p225
((lp226
(lp227
F-0.0
aa(lp228
F82.857
aa(lp229
F42.0
aa(lp230
F0.0
aF91.83673471428574
aF96.0
atp231
sS'16578'
p232
((lp233
(lp234
F0.0
aa(lp235
F86.471
aa(lp236
F36.667
aa(lp237
F0.0
aF58.13148805882354
aF88.88888899999999
atp238
sS'16579'
p239
((lp240
(lp241
F-0.0
aa(lp242
F88.451
aa(lp243
F38.148
aa(lp244
F0.0
aF27.177147478873312
aF96.57064474074079
atp245
sS'16576'
p246
((lp247
(lp248
F90.0
aa(lp249
F0.0
aa(lp250
F90.0
aa(lp251
F0.0
aF0.0
aI0
atp252
sS'16577'
p253
((lp254
(lp255
F29.783
aa(lp256
F79.048
aa(lp257
F50.0
aa(lp258
F6.474480304347854
aF99.09297066666637
aF0.0
atp259
sS'16574'
p260
((lp261
(lp262
F85.652
aa(lp263
F-0.0
aa(lp264
F48.0
aa(lp265
F68.05293008695651
aF0.0
aF36.0
atp266
sS'16575'
p267
((lp268
(lp269
F40.571
aa(lp270
F84.091
aa(lp271
F0.0
aa(lp272
F99.6734695714287
aF80.53719009090904
aF0.0
atp273
sS'16572'
p274
((lp275
(lp276
F97.5
aa(lp277
F66.75
aa(lp278
F10.0
aa(lp279
F18.75
aF82.6875
aF0.0
atp280
sS'16573'
p281
((lp282
(lp283
F92.828
aa(lp284
F12.653
aa(lp285
F62.216
aa(lp286
F37.7390022590233
aF191.6347355306122
aF98.94570077611945
atp287
sS'16570'
p288
((lp289
(lp290
F90.0
aa(lp291
F80.0
aa(lp292
F90.0
aa(lp293
F0.0
aF0.0
aI0
atp294
sS'16571'
p295
((lp296
(lp297
F90.0
aa(lp298
F70.0
aa(lp299
F50.0
aa(lp300
F0.0
aF0.0
aF0.0
atp301
sS'16119'
p302
((lp303
(lp304
F72.807
aa(lp305
F23.736
aa(lp306
F50.0
aa(lp307
F44.75223145614037
aF148.67769600000008
aF0.0
atp308
sS'16628'
p309
((lp310
(lp311
F89.682
aa(lp312
F0.121
aa(lp313
F99.933
aa(lp314
F4.747512625592432
aF0.46786713065326424
aF0.19770248314606773
atp315
sS'16143'
p316
((lp317
(lp318
F45.273
aa(lp319
F78.175
aa(lp320
F-0.0
aa(lp321
F72.19834718181818
aF96.6700410583943
aF0.0
atp322
sS'16142'
p323
((lp324
(lp325
F44.286
aa(lp326
F90.0
aa(lp327
F70.0
aa(lp328
F81.63265314285715
aF0.0
aF0.0
atp329
sS'16172'
p330
((lp331
(lp332
F80.99
aa(lp333
F20.312
aa(lp334
F50.0
aa(lp335
F95.38373636363575
aF196.777344
aF0.0
atp336
sS'16173'
p337
((lp338
(lp339
F99.63
aa(lp340
F0.0
aa(lp341
F66.667
aa(lp342
F3.5665296296296285
aF0.0
aF155.55555566666666
atp343
sS'16170'
p344
((lp345
(lp346
F90.0
aa(lp347
F-0.0
aa(lp348
F90.0
aa(lp349
I0
aF0.0
aF0.0
atp350
sS'16171'
p351
((lp352
(lp353
F41.72
aa(lp354
F83.95
aa(lp355
F-0.0
aa(lp356
F97.04247643312083
aF121.89750000000045
aF0.0
atp357
sS'16176'
p358
((lp359
(lp360
F88.523
aa(lp361
F9.0
aa(lp362
F65.0
aa(lp363
F12.59039263636361
aF189.0
aF75.0
atp364
sS'16177'
p365
((lp366
(lp367
F0.0
aa(lp368
F100.0
aa(lp369
F85.556
aa(lp370
F0.0
aF0.0
aF91.3580248888889
atp371
sS'16174'
p372
((lp373
(lp374
F0.0
aa(lp375
F85.385
aa(lp376
F44.286
aa(lp377
F0.0
aF71.00591730769231
aF81.63265314285715
atp378
sS'16175'
p379
((lp380
(lp381
F80.0
aa(lp382
F90.0
aa(lp383
F90.0
aa(lp384
F0.0
aF0.0
aI0
atp385
sS'16271'
p386
((lp387
(lp388
F71.818
aa(lp389
F90.0
aa(lp390
F41.818
aa(lp391
F14.87603309090908
aF0.0
aF233.05785127272728
atp392
sS'16178'
p393
((lp394
(lp395
F90.0
aa(lp396
F90.0
aa(lp397
F90.0
aa(lp398
F0.0
aI0
aI0
atp399
sS'16179'
p400
((lp401
(lp402
F65.0
aa(lp403
F93.158
aa(lp404
F80.0
aa(lp405
F50.0
aF21.606648210526306
aF0.0
atp406
sS'16270'
p407
((lp408
(lp409
F88.81
aa(lp410
F0.0
aa(lp411
F35.0
aa(lp412
F15.24943333333334
aF0.0
aF75.0
atp413
sS'16327'
p414
((lp415
(lp416
F0.0
aa(lp417
F77.5
aa(lp418
F42.308
aa(lp419
F0.0
aF93.75
aF94.67455630769231
atp420
sS'16499'
p421
((lp422
(lp423
F86.579
aa(lp424
F0.0
aa(lp425
F44.545
aa(lp426
F38.29639889473682
aF0.0
aF79.33884318181819
atp427
sS'16498'
p428
((lp429
(lp430
F90.0
aa(lp431
F80.0
aa(lp432
F90.0
aa(lp433
F0.0
aF0.0
aI0
atp434
sS'16326'
p435
((lp436
(lp437
F84.444
aa(lp438
F0.0
aa(lp439
F100.0
aa(lp440
F24.691358222222224
aF0.0
aF0.0
atp441
sS'16495'
p442
((lp443
(lp444
F90.0
aa(lp445
F50.0
aa(lp446
F70.0
aa(lp447
F0.0
aF0.0
aF0.0
atp448
sS'16494'
p449
((lp450
(lp451
F90.0
aa(lp452
F50.0
aa(lp453
F70.0
aa(lp454
F0.0
aF0.0
aF0.0
atp455
sS'16497'
p456
((lp457
(lp458
F60.37
aa(lp459
F90.0
aa(lp460
F24.286
aa(lp461
F99.86282592592592
aF0.0
aF138.7755102857143
atp462
sS'16496'
p463
((lp464
(lp465
F100.0
aa(lp466
F90.0
aa(lp467
F80.0
aa(lp468
F0.0
aF0.0
aF0.0
atp469
sS'16491'
p470
((lp471
(lp472
F90.0
aa(lp473
F80.0
aa(lp474
F90.0
aa(lp475
F0.0
aF0.0
aI0
atp476
sS'16490'
p477
((lp478
(lp479
F91.045
aa(lp480
F3.8
aa(lp481
F61.375
aa(lp482
F31.043388636363627
aF57.760000000000005
aF66.984375
atp483
sS'16493'
p484
((lp485
(lp486
F90.0
aa(lp487
F80.0
aa(lp488
F90.0
aa(lp489
F0.0
aF0.0
aI0
atp490
sS'16492'
p491
((lp492
(lp493
F80.0
aa(lp494
F90.0
aa(lp495
F90.0
aa(lp496
F0.0
aF0.0
aI0
atp497
sS'16253'
p498
((lp499
(lp500
F63.0
aa(lp501
F90.909
aa(lp502
F80.0
aa(lp503
F24.666666666666668
aF8.264462818181817
aF0.0
atp504
sS'16252'
p505
((lp506
(lp507
F64.118
aa(lp508
F12.5
aa(lp509
F90.0
aa(lp510
F83.04498282352947
aF118.75
aF0.0
atp511
sS'16251'
p512
((lp513
(lp514
F77.0
aa(lp515
F90.0
aa(lp516
F10.0
aa(lp517
F61.0
aF0.0
aF0.0
atp518
sS'16250'
p519
((lp520
(lp521
F64.561
aa(lp522
F16.579
aa(lp523
F90.0
aa(lp524
F79.19359819298244
aF222.50692521052636
aF0.0
atp525
sS'16257'
p526
((lp527
(lp528
F84.533
aa(lp529
F0.0
aa(lp530
F46.8
aa(lp531
F67.44888900000002
aF0.0
aF53.75999999999999
atp532
sS'16256'
p533
((lp534
(lp535
F87.241
aa(lp536
F44.737
aa(lp537
F0.0
aa(lp538
F33.76932237931034
aF77.56232689473684
aF0.0
atp539
sS'16255'
p540
((lp541
(lp542
F0.0
aa(lp543
F99.268
aa(lp544
F74.7
aa(lp545
F0.0
aF6.342653268292686
aF62.010000000000005
atp546
sS'16254'
p547
((lp548
(lp549
F45.4
aa(lp550
F92.703
aa(lp551
F80.0
aa(lp552
F216.64000000000001
aF19.7224252162162
aF0.0
atp553
sS'16312'
p554
((lp555
(lp556
F78.776
aa(lp557
F-0.0
aa(lp558
F41.271
aa(lp559
F100.29316107462726
aF0.0
aF98.18996834375054
atp560
sS'16313'
p561
((lp562
(lp563
F0.811
aa(lp564
F87.2
aa(lp565
F65.385
aa(lp566
F23.666910189189206
aF20.160000000000018
aF71.00591730769233
atp567
sS'16707'
p568
((lp569
(lp570
F10.0
aa(lp571
F90.0
aa(lp572
F10.0
aa(lp573
F0.0
aF0.0
aI0
atp574
sS'16706'
p575
((lp576
(lp577
F0.0
aa(lp578
F61.304
aa(lp579
F87.778
aa(lp580
F0.0
aF80.90737252173912
aF46.91358029629628
atp581
sS'16316'
p582
((lp583
(lp584
F100.0
aa(lp585
F80.063
aa(lp586
F90.0
aa(lp587
F0.0
aF0.05859400000000003
aF0.0
atp588
sS'16317'
p589
((lp590
(lp591
F71.667
aa(lp592
F90.0
aa(lp593
F45.0
aa(lp594
F13.888889
aF0.0
aF75.0
atp595
sS'16314'
p596
((lp597
(lp598
F74.0
aa(lp599
F50.0
aa(lp600
F27.209
aa(lp601
F48.0
aF0.0
aF75.93293681395349
atp602
sS'16315'
p603
((lp604
(lp605
F89.196
aa(lp606
F38.156
aa(lp607
F-0.0
aa(lp608
F17.325297118880805
aF96.60122985474842
aF0.0
atp609
sS'16720'
p610
((lp611
(lp612
F90.0
aa(lp613
F100.0
aa(lp614
F84.0
aa(lp615
F0.0
aF0.0
aF0.0
atp616
sS'16626'
p617
((lp618
(lp619
F90.0
aa(lp620
F0.0
aa(lp621
F80.0
aa(lp622
F0.0
aF0.0
aF0.0
atp623
sS'16321'
p624
((lp625
(lp626
F0.0
aa(lp627
F84.0
aa(lp628
F42.0
aa(lp629
F0.0
aF84.0
aF96.0
atp630
sS'16429'
p631
((lp632
(lp633
F30.0
aa(lp634
F88.947
aa(lp635
F0.0
aa(lp636
F0.0
aF9.418282684210528
aF0.0
atp637
sS'16279'
p638
((lp639
(lp640
F65.135
aa(lp641
F89.704
aa(lp642
F14.063
aa(lp643
F73.63038716216228
aF2.875171555555562
aF224.12109400000003
atp644
sS'16583'
p645
((lp646
(lp647
F100.0
aa(lp648
F100.0
aa(lp649
F100.0
aa(lp650
F0.0
aI0
aI0
atp651
sS'16320'
p652
((lp653
(lp654
F90.0
aa(lp655
F80.0
aa(lp656
F90.0
aa(lp657
F0.0
aF0.0
aI0
atp658
sS'16344'
p659
((lp660
(lp661
F90.0
aa(lp662
F44.839
aa(lp663
F75.208
aa(lp664
F0.0
aF76.58688874193551
aF24.95659733333333
atp665
sS'16278'
p666
((lp667
(lp668
F79.286
aa(lp669
F90.0
aa(lp670
F100.0
aa(lp671
F3.0612245714285713
aF0.0
aF0.0
atp672
sS'16381'
p673
((lp674
(lp675
F85.184
aa(lp676
F-0.0
aa(lp677
F43.557
aa(lp678
F72.12335432775919
aF0.0
aF87.34741678523481
atp679
sS'16380'
p680
((lp681
(lp682
F90.0
aa(lp683
F80.0
aa(lp684
F90.0
aa(lp685
F0.0
aF0.0
aI0
atp686
sS'16383'
p687
((lp688
(lp689
F3.741
aa(lp690
F87.3
aa(lp691
F40.624
aa(lp692
F49.7683045294118
aF149.68169139465934
aF109.82747909278378
atp693
sS'16382'
p694
((lp695
(lp696
F0.9
aa(lp697
F90.248
aa(lp698
F40.909
aa(lp699
F10.189999999999952
aF24.782994683229724
aF99.17355372727273
atp700
sS'16385'
p701
((lp702
(lp703
F10.0
aa(lp704
F90.0
aa(lp705
F90.0
aa(lp706
F0.0
aI0
aF0.0
atp707
sS'16384'
p708
((lp709
(lp710
F90.0
aa(lp711
F80.0
aa(lp712
F90.0
aa(lp713
F0.0
aF0.0
aI0
atp714
sS'16387'
p715
((lp716
(lp717
F44.286
aa(lp718
F0.0
aa(lp719
F86.154
aa(lp720
F81.63265314285715
aF0.0
aF54.43786984615384
atp721
sS'16386'
p722
((lp723
(lp724
F66.714
aa(lp725
F89.394
aa(lp726
F18.0
aa(lp727
F58.489796000000034
aF11.753902666666665
aF216.0
atp728
sS'16389'
p729
((lp730
(lp731
F80.0
aa(lp732
F90.0
aa(lp733
F90.0
aa(lp734
F0.0
aF0.0
aI0
atp735
sS'16388'
p736
((lp737
(lp738
F90.0
aa(lp739
F50.0
aa(lp740
F80.0
aa(lp741
F0.0
aF0.0
aF0.0
atp742
sS'16449'
p743
((lp744
(lp745
F62.639
aa(lp746
F89.941
aa(lp747
F15.0
aa(lp748
F91.64737655555548
aF2.9550786331361043
aF225.0
atp749
sS'16406'
p750
((lp751
(lp752
F90.0
aa(lp753
F90.0
aa(lp754
F90.0
aa(lp755
F0.0
aI0
aI0
atp756
sS'16407'
p757
((lp758
(lp759
F80.0
aa(lp760
F90.0
aa(lp761
F90.0
aa(lp762
F0.0
aF0.0
aI0
atp763
sS'16404'
p764
((lp765
(lp766
F87.857
aa(lp767
F0.0
aa(lp768
F43.333
aa(lp769
F31.122449
aF0.0
aF88.88888899999999
atp770
sS'16405'
p771
((lp772
(lp773
F90.0
aa(lp774
F80.0
aa(lp775
F90.0
aa(lp776
F0.0
aF0.0
aI0
atp777
sS'16402'
p778
((lp779
(lp780
F90.0
aa(lp781
F80.0
aa(lp782
F90.0
aa(lp783
F0.0
aF0.0
aI0
atp784
sS'16403'
p785
((lp786
(lp787
F90.0
aa(lp788
F80.0
aa(lp789
F80.0
aa(lp790
F0.0
aF0.0
aI0
atp791
sS'16400'
p792
((lp793
(lp794
F90.0
aa(lp795
F80.0
aa(lp796
F90.0
aa(lp797
F0.0
aF0.0
aI0
atp798
sS'16401'
p799
((lp800
(lp801
F90.0
aa(lp802
F80.0
aa(lp803
F80.0
aa(lp804
F0.0
aF0.0
aI0
atp805
sS'16958'
p806
((lp807
(lp808
F90.0
aa(lp809
F70.0
aa(lp810
F80.0
aa(lp811
F0.0
aF0.0
aF0.0
atp812
sS'16959'
p813
((lp814
(lp815
F99.857
aa(lp816
F3.333
aa(lp817
F87.393
aa(lp818
F0.5714285918367344
aF22.22222233333333
aF18.524234714285715
atp819
sS'16328'
p820
((lp821
(lp822
F21.884
aa(lp823
F77.087
aa(lp824
F50.0
aa(lp825
F177.60974585507284
aF91.5149383693688
aF0.0
atp826
sS'16408'
p827
((lp828
(lp829
F95.0
aa(lp830
F0.0
aa(lp831
F80.0
aa(lp832
F25.0
aF0.0
aF0.0
atp833
sS'16409'
p834
((lp835
(lp836
F98.891
aa(lp837
F2.353
aa(lp838
F73.571
aa(lp839
F9.856578459584368
aF56.22837370588246
aF108.67346957142847
atp840
sS'16796'
p841
((lp842
(lp843
F90.0
aa(lp844
F90.0
aa(lp845
F90.0
aa(lp846
F0.0
aI0
aI0
atp847
sS'16797'
p848
((lp849
(lp850
F0.0
aa(lp851
F81.111
aa(lp852
F100.0
aa(lp853
F0.0
aF9.876543222222221
aF0.0
atp854
sS'16794'
p855
((lp856
(lp857
F90.0
aa(lp858
F80.0
aa(lp859
F90.0
aa(lp860
F0.0
aF0.0
aI0
atp861
sS'16795'
p862
((lp863
(lp864
F90.0
aa(lp865
F30.0
aa(lp866
F100.0
aa(lp867
F0.0
aF0.0
aF0.0
atp868
sS'16792'
p869
((lp870
(lp871
F80.0
aa(lp872
F95.0
aa(lp873
F70.0
aa(lp874
F0.0
aF25.0
aF0.0
atp875
sS'16793'
p876
((lp877
(lp878
F90.0
aa(lp879
F-0.0
aa(lp880
F80.0
aa(lp881
F0.0
aF0.0
aF0.0
atp882
sS'16790'
p883
((lp884
(lp885
F90.0
aa(lp886
F30.0
aa(lp887
F80.0
aa(lp888
F0.0
aF0.0
aF0.0
atp889
sS'16791'
p890
((lp891
(lp892
F90.0
aa(lp893
F79.787
aa(lp894
F50.0
aa(lp895
F0.0
aF2.0823902765957425
aF0.0
atp896
sS'16811'
p897
((lp898
(lp899
F90.0
aa(lp900
F80.0
aa(lp901
F100.0
aa(lp902
F0.0
aF0.0
aF0.0
atp903
sS'16810'
p904
((lp905
(lp906
F0.0
aa(lp907
F85.0
aa(lp908
F40.0
aa(lp909
F0.0
aF75.0
aF100.0
atp910
sS'16813'
p911
((lp912
(lp913
F80.0
aa(lp914
F90.0
aa(lp915
F90.0
aa(lp916
F0.0
aF0.0
aI0
atp917
sS'16812'
p918
((lp919
(lp920
F0.0
aa(lp921
F98.5
aa(lp922
F77.286
aa(lp923
F0.0
aF13.535714285714286
aF29.63265314285714
atp924
sS'16815'
p925
((lp926
(lp927
F90.0
aa(lp928
F80.0
aa(lp929
F90.0
aa(lp930
F0.0
aF0.0
aI0
atp931
sS'16814'
p932
((lp933
(lp934
F-0.0
aa(lp935
F57.059
aa(lp936
F30.0
aa(lp937
F0.0
aF91.349481
aF0.0
atp938
sS'16798'
p939
((lp940
(lp941
F90.0
aa(lp942
F80.0
aa(lp943
F90.0
aa(lp944
F0.0
aF0.0
aI0
atp945
sS'16799'
p946
((lp947
(lp948
F100.0
aa(lp949
F0.0
aa(lp950
F90.0
aa(lp951
F0.0
aF0.0
aF0.0
atp952
sS'16268'
p953
((lp954
(lp955
F38.791
aa(lp956
F81.364
aa(lp957
F0.0
aa(lp958
F98.538823857143
aF96.62534448484841
aF0.0
atp959
sS'16741'
p960
((lp961
(lp962
F77.241
aa(lp963
F0.0
aa(lp964
F45.238
aa(lp965
F92.3900120344827
aF0.0
aF72.56235828571425
atp966
sS'16740'
p967
((lp968
(lp969
F90.0
aa(lp970
F80.0
aa(lp971
F100.0
aa(lp972
F0.0
aF0.0
aF0.0
atp973
sS'16340'
p974
((lp975
(lp976
F0.0
aa(lp977
F82.517
aa(lp978
F36.608
aa(lp979
F0.0
aF92.96298130769253
aF88.49385783259928
atp980
sS'16743'
p981
((lp982
(lp983
F90.0
aa(lp984
F90.0
aa(lp985
F90.0
aa(lp986
F0.0
aI0
aI0
atp987
sS'16244'
p988
((lp989
(lp990
F100.0
aa(lp991
F90.0
aa(lp992
F80.0
aa(lp993
F0.0
aF0.0
aF0.0
atp994
sS'16742'
p995
((lp996
(lp997
F10.0
aa(lp998
F90.0
aa(lp999
F100.0
aa(lp1000
F0.0
aF0.0
aF0.0
atp1001
sS'16605'
p1002
((lp1003
(lp1004
F80.0
aa(lp1005
F90.0
aa(lp1006
F90.0
aa(lp1007
F0.0
aF0.0
aI0
atp1008
sS'16245'
p1009
((lp1010
(lp1011
F76.41
aa(lp1012
F21.563
aa(lp1013
F50.0
aa(lp1014
F74.29322820512824
aF181.93359400000003
aF0.0
atp1015
sS'16745'
p1016
((lp1017
(lp1018
F90.0
aa(lp1019
F80.0
aa(lp1020
F90.0
aa(lp1021
F0.0
aF0.0
aI0
atp1022
sS'16269'
p1023
((lp1024
(lp1025
F70.0
aa(lp1026
F90.0
aa(lp1027
F70.0
aa(lp1028
F0.0
aF0.0
aI0
atp1029
sS'16246'
p1030
((lp1031
(lp1032
F90.0
aa(lp1033
F12.727
aa(lp1034
F63.171
aa(lp1035
F0.0
aF183.47107445454546
aF89.94646051219512
atp1036
sS'16744'
p1037
((lp1038
(lp1039
F90.0
aa(lp1040
F80.0
aa(lp1041
F90.0
aa(lp1042
F0.0
aF0.0
aI0
atp1043
sS'16925'
p1044
((lp1045
(lp1046
F88.368
aa(lp1047
F0.0
aa(lp1048
F32.778
aa(lp1049
F29.443213473684256
aF0.0
aF47.83950622222224
atp1050
sS'16924'
p1051
((lp1052
(lp1053
F80.0
aa(lp1054
F90.0
aa(lp1055
F90.0
aa(lp1056
F0.0
aF0.0
aI0
atp1057
sS'16927'
p1058
((lp1059
(lp1060
F-0.0
aa(lp1061
F90.141
aa(lp1062
F34.0
aa(lp1063
F0.0
aF12.656219028169033
aF64.0
atp1064
sS'16247'
p1065
((lp1066
(lp1067
F77.881
aa(lp1068
F0.0
aa(lp1069
F41.351
aa(lp1070
F93.5222139801326
aF0.0
aF98.17384964864873
atp1071
sS'16921'
p1072
((lp1073
(lp1074
F60.741
aa(lp1075
F5.143
aa(lp1076
F89.615
aa(lp1077
F99.45130322222224
aF127.83673471428567
aF3.698225000000007
atp1078
sS'16747'
p1079
((lp1080
(lp1081
F80.0
aa(lp1082
F90.0
aa(lp1083
F90.0
aa(lp1084
F0.0
aF0.0
aI0
atp1085
sS'16923'
p1086
((lp1087
(lp1088
F87.353
aa(lp1089
F0.2
aa(lp1090
F38.0
aa(lp1091
F67.52249135294119
aF1.16
aF144.0
atp1092
sS'16922'
p1093
((lp1094
(lp1095
F90.132
aa(lp1096
F50.0
aa(lp1097
F72.5
aa(lp1098
F1.2984766315789498
aF0.0
aF6.25
atp1099
sS'16240'
p1100
((lp1101
(lp1102
F43.83
aa(lp1103
F90.0
aa(lp1104
F70.0
aa(lp1105
F181.077410638298
aF0.0
aF0.0
atp1106
sS'16746'
p1107
((lp1108
(lp1109
F88.889
aa(lp1110
F0.0
aa(lp1111
F60.0
aa(lp1112
F9.876543222222223
aF0.0
aF100.0
atp1113
sS'16929'
p1114
((lp1115
(lp1116
F90.0
aa(lp1117
F80.0
aa(lp1118
F90.0
aa(lp1119
F0.0
aF0.0
aI0
atp1120
sS'16928'
p1121
((lp1122
(lp1123
F0.0
aa(lp1124
F37.083
aa(lp1125
F84.444
aa(lp1126
F0.0
aF91.49305566666665
aF80.24691377777779
atp1127
sS'16241'
p1128
((lp1129
(lp1130
F90.0
aa(lp1131
F0.0
aa(lp1132
F0.0
aa(lp1133
F0.0
aF0.0
aI0
atp1134
sS'16242'
p1135
((lp1136
(lp1137
F84.878
aa(lp1138
F0.0
aa(lp1139
F39.434
aa(lp1140
F73.76561570731704
aF0.0
aF99.6796012830188
atp1141
sS'16941'
p1142
((lp1143
(lp1144
F81.06
aa(lp1145
F1.537
aa(lp1146
F40.621
aa(lp1147
F110.65172575574476
aF19.849662350717256
aF107.17892662381306
atp1148
sS'16243'
p1149
((lp1150
(lp1151
F90.0
aa(lp1152
F80.0
aa(lp1153
F90.0
aa(lp1154
F0.0
aF0.0
aI0
atp1155
sS'16532'
p1156
((lp1157
(lp1158
F98.421
aa(lp1159
F5.0
aa(lp1160
F75.0
aa(lp1161
F13.296398894736846
aF25.0
aF25.0
atp1162
sS'16533'
p1163
((lp1164
(lp1165
F-0.0
aa(lp1166
F84.667
aa(lp1167
F40.968
aa(lp1168
F0.0
aF84.888889
aF99.06347561290325
atp1169
sS'16109'
p1170
((lp1171
(lp1172
F88.287
aa(lp1173
F-0.0
aa(lp1174
F40.0
aa(lp1175
F30.862054185185087
aF0.0
aF100.0
atp1176
sS'16108'
p1177
((lp1178
(lp1179
F85.07
aa(lp1180
F0.0
aa(lp1181
F42.632
aa(lp1182
F60.34396976744168
aF0.0
aF93.07479242105263
atp1183
sS'16536'
p1184
((lp1185
(lp1186
F90.0
aa(lp1187
F90.0
aa(lp1188
F90.0
aa(lp1189
F0.0
aI0
aI0
atp1190
sS'16537'
p1191
((lp1192
(lp1193
F90.0
aa(lp1194
F80.0
aa(lp1195
F80.0
aa(lp1196
F0.0
aF0.0
aI0
atp1197
sS'16534'
p1198
((lp1199
(lp1200
F80.0
aa(lp1201
F90.0
aa(lp1202
F90.0
aa(lp1203
F0.0
aF0.0
aI0
atp1204
sS'16535'
p1205
((lp1206
(lp1207
F90.0
aa(lp1208
F80.0
aa(lp1209
F90.0
aa(lp1210
F0.0
aF0.0
aI0
atp1211
sS'16103'
p1212
((lp1213
(lp1214
F90.0
aa(lp1215
F80.0
aa(lp1216
F90.0
aa(lp1217
F0.0
aF0.0
aI0
atp1218
sS'16102'
p1219
((lp1220
(lp1221
F90.0
aa(lp1222
F80.0
aa(lp1223
F80.0
aa(lp1224
F0.0
aF0.0
aI0
atp1225
sS'16101'
p1226
((lp1227
(lp1228
F97.421
aa(lp1229
F0.217
aa(lp1230
F48.81
aa(lp1231
F22.964725978540677
aF4.20305566666664
aF140.1541952380952
atp1232
sS'16100'
p1233
((lp1234
(lp1235
F92.5
aa(lp1236
F40.2
aa(lp1237
F74.167
aa(lp1238
F18.5515873015873
aF142.76
aF24.305555666666674
atp1239
sS'16107'
p1240
((lp1241
(lp1242
F86.308
aa(lp1243
F42.83
aa(lp1244
F0.0
aa(lp1245
F55.46188662443446
aF91.99003207547175
aF0.0
atp1246
sS'16106'
p1247
((lp1248
(lp1249
F70.29
aa(lp1250
F90.0
aa(lp1251
F45.727
aa(lp1252
F2.814534782608697
aF0.0
aF135.38016536363665
atp1253
sS'16105'
p1254
((lp1255
(lp1256
F84.828
aa(lp1257
F0.0
aa(lp1258
F41.111
aa(lp1259
F73.24613572413797
aF0.0
aF98.76543211111112
atp1260
sS'16104'
p1261
((lp1262
(lp1263
F73.333
aa(lp1264
F36.667
aa(lp1265
F90.0
aa(lp1266
F22.222222333333335
aF88.88888899999999
aF0.0
atp1267
sS'16954'
p1268
((lp1269
(lp1270
F100.0
aa(lp1271
F10.0
aa(lp1272
F90.0
aa(lp1273
F0.0
aF0.0
aF0.0
atp1274
sS'16878'
p1275
((lp1276
(lp1277
F90.0
aa(lp1278
F80.0
aa(lp1279
F90.0
aa(lp1280
F0.0
aF0.0
aI0
atp1281
sS'16039'
p1282
((lp1283
(lp1284
F85.938
aa(lp1285
F-0.0
aa(lp1286
F46.667
aa(lp1287
F55.371093999999964
aF0.0
aF55.555555666666656
atp1288
sS'16038'
p1289
((lp1290
(lp1291
F90.0
aa(lp1292
F80.0
aa(lp1293
F90.0
aa(lp1294
F0.0
aF0.0
aI0
atp1295
sS'16037'
p1296
((lp1297
(lp1298
F55.263
aa(lp1299
F2.018
aa(lp1300
F89.797
aa(lp1301
F140.72022163157888
aF24.876885403508822
aF49.78176596202531
atp1302
sS'16036'
p1303
((lp1304
(lp1305
F90.0
aa(lp1306
F80.0
aa(lp1307
F90.0
aa(lp1308
F0.0
aF0.0
aI0
atp1309
sS'16035'
p1310
((lp1311
(lp1312
F0.0
aa(lp1313
F80.882
aa(lp1314
F45.111
aa(lp1315
F0.0
aF99.22145341176476
aF73.87654322222224
atp1316
sS'16034'
p1317
((lp1318
(lp1319
F-0.0
aa(lp1320
F80.0
aa(lp1321
F90.0
aa(lp1322
F0.0
aF0.0
aF0.0
atp1323
sS'16033'
p1324
((lp1325
(lp1326
F90.0
aa(lp1327
F90.0
aa(lp1328
F90.0
aa(lp1329
F0.0
aI0
aI0
atp1330
sS'16032'
p1331
((lp1332
(lp1333
F90.0
aa(lp1334
F30.0
aa(lp1335
F90.0
aa(lp1336
F0.0
aF0.0
aI0
atp1337
sS'16031'
p1338
((lp1339
(lp1340
F60.833
aa(lp1341
F20.625
aa(lp1342
F89.294
aa(lp1343
F99.30555566666665
aF193.359375
aF6.560553647058817
atp1344
sS'16030'
p1345
((lp1346
(lp1347
F56.667
aa(lp1348
F89.63
aa(lp1349
F0.0
aa(lp1350
F88.88888899999999
aF3.5665296296296236
aF0.0
atp1351
sS'16217'
p1352
((lp1353
(lp1354
F90.0
aa(lp1355
F90.0
aa(lp1356
F90.0
aa(lp1357
F0.0
aI0
aI0
atp1358
sS'16216'
p1359
((lp1360
(lp1361
F88.947
aa(lp1362
F0.0
aa(lp1363
F100.0
aa(lp1364
F19.94459847368422
aF0.0
aF0.0
atp1365
sS'16215'
p1366
((lp1367
(lp1368
F38.041
aa(lp1369
F0.0
aa(lp1370
F73.433
aa(lp1371
F96.16324801030932
aF0.0
aF55.37981735820892
atp1372
sS'16214'
p1373
((lp1374
(lp1375
F60.0
aa(lp1376
F8.143
aa(lp1377
F89.954
aa(lp1378
F100.0
aF177.97959185714296
aF0.46081970370370395
atp1379
sS'16213'
p1380
((lp1381
(lp1382
F90.0
aa(lp1383
F80.0
aa(lp1384
F90.0
aa(lp1385
F0.0
aF0.0
aI0
atp1386
sS'16212'
p1387
((lp1388
(lp1389
F61.667
aa(lp1390
F89.93
aa(lp1391
F1.667
aa(lp1392
F97.22222233333339
aF0.6944104895104831
aF47.22222233333331
atp1393
sS'16211'
p1394
((lp1395
(lp1396
F0.165
aa(lp1397
F99.053
aa(lp1398
F78.286
aa(lp1399
F1.625572107438009
aF7.93568604918035
aF48.48979600000005
atp1400
sS'16210'
p1401
((lp1402
(lp1403
F44.762
aa(lp1404
F70.0
aa(lp1405
F90.0
aa(lp1406
F132.87981860317493
aF0.0
aF0.0
atp1407
sS'16749'
p1408
((lp1409
(lp1410
F80.0
aa(lp1411
F90.0
aa(lp1412
F80.0
aa(lp1413
F0.0
aF0.0
aI0
atp1414
sS'16748'
p1415
((lp1416
(lp1417
F90.0
aa(lp1418
F80.0
aa(lp1419
F90.0
aa(lp1420
F0.0
aF0.0
aI0
atp1421
sS'16629'
p1422
((lp1423
(lp1424
F79.76
aa(lp1425
F0.0
aa(lp1426
F42.596
aa(lp1427
F96.74240000000007
aF0.0
aF93.25998523076916
atp1428
sS'16219'
p1429
((lp1430
(lp1431
F78.0
aa(lp1432
F0.0
aa(lp1433
F91.967
aa(lp1434
F46.0
aF0.0
aF15.80220375409836
atp1435
sS'16218'
p1436
((lp1437
(lp1438
F93.544
aa(lp1439
F1.167
aa(lp1440
F42.063
aa(lp1441
F82.00935775066344
aF15.929571719546642
aF124.83359399999992
atp1442
sS'16587'
p1443
((lp1444
(lp1445
F90.0
aa(lp1446
F70.0
aa(lp1447
F100.0
aa(lp1448
F0.0
aF0.0
aF0.0
atp1449
sS'16586'
p1450
((lp1451
(lp1452
F50.0
aa(lp1453
F78.057
aa(lp1454
F23.75
aa(lp1455
F0.0
aF95.81864980971675
aF148.4375
atp1456
sS'16585'
p1457
((lp1458
(lp1459
F90.0
aa(lp1460
F80.0
aa(lp1461
F90.0
aa(lp1462
F0.0
aF0.0
aI0
atp1463
sS'16584'
p1464
((lp1465
(lp1466
F100.0
aa(lp1467
F0.0
aa(lp1468
F89.63
aa(lp1469
F0.0
aF0.0
aF3.566529629629628
atp1470
sS'16198'
p1471
((lp1472
(lp1473
F84.545
aa(lp1474
F41.304
aa(lp1475
F0.0
aa(lp1476
F79.33884318181812
aF98.29867686956523
aF0.0
atp1477
sS'16582'
p1478
((lp1479
(lp1480
F41.2
aa(lp1481
F0.0
aa(lp1482
F79.565
aa(lp1483
F98.56000000000023
aF0.0
aF97.63705108695655
atp1484
sS'16581'
p1485
((lp1486
(lp1487
F90.0
aa(lp1488
F80.0
aa(lp1489
F90.0
aa(lp1490
F0.0
aF0.0
aI0
atp1491
sS'16580'
p1492
((lp1493
(lp1494
F90.0
aa(lp1495
F0.0
aa(lp1496
F80.0
aa(lp1497
F0.0
aF0.0
aF0.0
atp1498
sS'16194'
p1499
((lp1500
(lp1501
F90.0
aa(lp1502
F100.0
aa(lp1503
F90.0
aa(lp1504
F0.0
aF0.0
aI0
atp1505
sS'16627'
p1506
((lp1507
(lp1508
F90.0
aa(lp1509
F0.0
aa(lp1510
F43.333
aa(lp1511
F0.0
aF0.0
aF88.88888899999999
atp1512
sS'16624'
p1513
((lp1514
(lp1515
F93.964
aa(lp1516
F86.857
aa(lp1517
F99.659
aa(lp1518
F3.105867428571428
aF11.408163285714286
aF0.5663297804878052
atp1519
sS'16197'
p1520
((lp1521
(lp1522
F90.0
aa(lp1523
F50.0
aa(lp1524
F76.25
aa(lp1525
F0.0
aF0.0
aF23.4375
atp1526
sS'16190'
p1527
((lp1528
(lp1529
F90.0
aa(lp1530
F80.0
aa(lp1531
F90.0
aa(lp1532
F0.0
aF0.0
aI0
atp1533
sS'16623'
p1534
((lp1535
(lp1536
F90.0
aa(lp1537
F30.0
aa(lp1538
F90.0
aa(lp1539
F0.0
aF0.0
aI0
atp1540
sS'16620'
p1541
((lp1542
(lp1543
F90.0
aa(lp1544
F80.0
aa(lp1545
F90.0
aa(lp1546
F0.0
aF0.0
aI0
atp1547
sS'16621'
p1548
((lp1549
(lp1550
F80.0
aa(lp1551
F90.0
aa(lp1552
F80.0
aa(lp1553
F0.0
aF0.0
aI0
atp1554
sS'16956'
p1555
((lp1556
(lp1557
F83.983
aa(lp1558
F0.458
aa(lp1559
F38.286
aa(lp1560
F78.96581442372882
aF5.2864052213740305
aF90.77551028571429
atp1561
sS'16625'
p1562
((lp1563
(lp1564
F90.0
aa(lp1565
F80.0
aa(lp1566
F80.0
aa(lp1567
F0.0
aF0.0
aI0
atp1568
sS'16622'
p1569
((lp1570
(lp1571
F90.0
aa(lp1572
F70.0
aa(lp1573
F80.0
aa(lp1574
F0.0
aF0.0
aF0.0
atp1575
sS'16602'
p1576
((lp1577
(lp1578
F42.562
aa(lp1579
F0.0
aa(lp1580
F79.273
aa(lp1581
F93.43624069421506
aF0.0
aF72.19834718181815
atp1582
sS'16191'
p1583
((lp1584
(lp1585
F90.0
aa(lp1586
F-0.0
aa(lp1587
F38.0
aa(lp1588
F0.0
aF0.0
aF96.0
atp1589
sS'16770'
p1590
((lp1591
(lp1592
F90.0
aa(lp1593
F80.0
aa(lp1594
F90.0
aa(lp1595
F0.0
aF0.0
aI0
atp1596
sS'16192'
p1597
((lp1598
(lp1599
F88.75
aa(lp1600
F0.0
aa(lp1601
F60.0
aa(lp1602
F10.9375
aF0.0
aF100.0
atp1603
sS'16771'
p1604
((lp1605
(lp1606
F87.429
aa(lp1607
F10.0
aa(lp1608
F98.333
aa(lp1609
F16.816326714285715
aF0.0
aF5.555555666666667
atp1610
sS'16193'
p1611
((lp1612
(lp1613
F90.0
aa(lp1614
F10.0
aa(lp1615
F10.0
aa(lp1616
F0.0
aF0.0
aI0
atp1617
sS'16957'
p1618
((lp1619
(lp1620
F70.0
aa(lp1621
F90.0
aa(lp1622
F70.0
aa(lp1623
F0.0
aF0.0
aI0
atp1624
sS'16994'
p1625
((lp1626
(lp1627
F90.0
aa(lp1628
F80.0
aa(lp1629
F90.0
aa(lp1630
F0.0
aF0.0
aI0
atp1631
sS'16995'
p1632
((lp1633
(lp1634
F98.108
aa(lp1635
F0.037
aa(lp1636
F49.0
aa(lp1637
F31.555880216216252
aF0.37174213432835684
aF9.0
atp1638
sS'16996'
p1639
((lp1640
(lp1641
F0.0
aa(lp1642
F44.545
aa(lp1643
F79.375
aa(lp1644
F0.0
aF79.33884318181819
aF93.359375
atp1645
sS'16997'
p1646
((lp1647
(lp1648
F90.0
aa(lp1649
F90.0
aa(lp1650
F90.0
aa(lp1651
F0.0
aI0
aI0
atp1652
sS'16990'
p1653
((lp1654
(lp1655
F56.667
aa(lp1656
F90.0
aa(lp1657
F30.0
aa(lp1658
F88.88888899999999
aF0.0
aF0.0
atp1659
sS'16991'
p1660
((lp1661
(lp1662
F80.0
aa(lp1663
F90.0
aa(lp1664
F80.0
aa(lp1665
F0.0
aF0.0
aI0
atp1666
sS'16992'
p1667
((lp1668
(lp1669
F90.0
aa(lp1670
F39.5
aa(lp1671
F78.375
aa(lp1672
F0.0
aF156.25
aF18.484375
atp1673
sS'16993'
p1674
((lp1675
(lp1676
F80.0
aa(lp1677
F80.0
aa(lp1678
F80.0
aa(lp1679
F0.0
aI0
aI0
atp1680
sS'16603'
p1681
((lp1682
(lp1683
F90.0
aa(lp1684
F80.0
aa(lp1685
F90.0
aa(lp1686
F0.0
aF0.0
aI0
atp1687
sS'16998'
p1688
((lp1689
(lp1690
F0.0
aa(lp1691
F91.351
aa(lp1692
F36.897
aa(lp1693
F0.0
aF130.60628208108113
aF90.36860899999995
atp1694
sS'16999'
p1695
((lp1696
(lp1697
F90.0
aa(lp1698
F80.0
aa(lp1699
F90.0
aa(lp1700
F0.0
aF0.0
aI0
atp1701
sS'16363'
p1702
((lp1703
(lp1704
F90.0
aa(lp1705
F10.0
aa(lp1706
F90.0
aa(lp1707
F0.0
aF0.0
aI0
atp1708
sS'16362'
p1709
((lp1710
(lp1711
F100.0
aa(lp1712
F90.0
aa(lp1713
F100.0
aa(lp1714
F0.0
aF0.0
aI0
atp1715
sS'16361'
p1716
((lp1717
(lp1718
F64.551
aa(lp1719
F14.155
aa(lp1720
F89.753
aa(lp1721
F77.65355858564367
aF224.28585598591522
aF4.2600213456790215
atp1722
sS'16360'
p1723
((lp1724
(lp1725
F0.0
aa(lp1726
F37.042
aa(lp1727
F79.333
aa(lp1728
F0.0
aF91.25173583098596
aF99.55555566666666
atp1729
sS'16367'
p1730
((lp1731
(lp1732
F56.667
aa(lp1733
F89.091
aa(lp1734
F20.0
aa(lp1735
F88.88888899999999
aF8.264462818181816
aF200.0
atp1736
sS'16366'
p1737
((lp1738
(lp1739
F56.154
aa(lp1740
F90.0
aa(lp1741
F27.692
aa(lp1742
F85.20710061538459
aF0.0
aF63.90532553846154
atp1743
sS'16365'
p1744
((lp1745
(lp1746
F100.0
aa(lp1747
F87.069
aa(lp1748
F0.0
aa(lp1749
F0.0
aF20.719381689655144
aF0.0
atp1750
sS'16364'
p1751
((lp1752
(lp1753
F87.857
aa(lp1754
F24.0
aa(lp1755
F57.5
aa(lp1756
F16.836734714285704
aF144.0
aF85.05
atp1757
sS'16442'
p1758
((lp1759
(lp1760
F74.0
aa(lp1761
F24.783
aa(lp1762
F50.0
aa(lp1763
F59.55555555555556
aF129.30056726086949
aF0.0
atp1764
sS'16443'
p1765
((lp1766
(lp1767
F47.167
aa(lp1768
F0.0
aa(lp1769
F86.852
aa(lp1770
F170.138889
aF0.0
aF36.38545955555552
atp1771
sS'16369'
p1772
((lp1773
(lp1774
F92.339
aa(lp1775
F4.049
aa(lp1776
F65.178
aa(lp1777
F50.74626544444449
aF89.26591319512174
aF88.14653750318472
atp1778
sS'16368'
p1779
((lp1780
(lp1781
F90.517
aa(lp1782
F4.448
aa(lp1783
F60.434
aa(lp1784
F7.541585650717665
aF112.81443534328352
aF99.77198757894746
atp1785
sS'16446'
p1786
((lp1787
(lp1788
F80.0
aa(lp1789
F90.0
aa(lp1790
F100.0
aa(lp1791
F0.0
aF0.0
aF0.0
atp1792
sS'16447'
p1793
((lp1794
(lp1795
F0.0
aa(lp1796
F56.33
aa(lp1797
F30.0
aa(lp1798
F0.0
aF140.04993975535112
aF0.0
atp1799
sS'16444'
p1800
((lp1801
(lp1802
F81.667
aa(lp1803
F0.0
aa(lp1804
F43.125
aa(lp1805
F103.70370381481483
aF0.0
aF90.234375
atp1806
sS'16445'
p1807
((lp1808
(lp1809
F88.095
aa(lp1810
F40.0
aa(lp1811
F0.0
aa(lp1812
F24.94331071428571
aF100.0
aF0.0
atp1813
sS'16693'
p1814
((lp1815
(lp1816
F31.569
aa(lp1817
F86.216
aa(lp1818
F0.0
aa(lp1819
F28.911957078431396
aF61.358655999999996
aF0.0
atp1820
sS'16692'
p1821
((lp1822
(lp1823
F-0.0
aa(lp1824
F40.0
aa(lp1825
F79.167
aa(lp1826
F0.0
aF100.0
aF90.97222233333332
atp1827
sS'16691'
p1828
((lp1829
(lp1830
F34.474
aa(lp1831
F91.196
aa(lp1832
F0.071
aa(lp1833
F124.72299178947375
aF159.98345947826093
aF0.7091838571428601
atp1834
sS'16690'
p1835
((lp1836
(lp1837
F89.478
aa(lp1838
F7.41
aa(lp1839
F64.852
aa(lp1840
F22.23256825804034
aF152.82242216905917
aF89.41906246994597
atp1841
sS'16697'
p1842
((lp1843
(lp1844
F50.0
aa(lp1845
F21.618
aa(lp1846
F74.673
aa(lp1847
F0.0
aF181.20674752941173
aF56.66870470093461
atp1848
sS'16696'
p1849
((lp1850
(lp1851
F0.0
aa(lp1852
F90.0
aa(lp1853
F80.0
aa(lp1854
F0.0
aF0.0
aF0.0
atp1855
sS'16695'
p1856
((lp1857
(lp1858
F0.0
aa(lp1859
F90.0
aa(lp1860
F62.0
aa(lp1861
F0.0
aF0.0
aF96.0
atp1862
sS'16694'
p1863
((lp1864
(lp1865
F100.0
aa(lp1866
F53.333
aa(lp1867
F90.0
aa(lp1868
F0.0
aF22.222222333333335
aF0.0
atp1869
sS'16699'
p1870
((lp1871
(lp1872
F90.0
aa(lp1873
F80.0
aa(lp1874
F90.0
aa(lp1875
F0.0
aF0.0
aI0
atp1876
sS'16698'
p1877
((lp1878
(lp1879
F90.0
aa(lp1880
F90.0
aa(lp1881
F90.0
aa(lp1882
F0.0
aI0
aI0
atp1883
sS'16588'
p1884
((lp1885
(lp1886
F87.692
aa(lp1887
F0.0
aa(lp1888
F42.067
aa(lp1889
F40.82840246153849
aF0.0
aF94.46222233333334
atp1890
sS'16521'
p1891
((lp1892
(lp1893
F80.0
aa(lp1894
F90.0
aa(lp1895
F90.0
aa(lp1896
F0.0
aF0.0
aI0
atp1897
sS'16169'
p1898
((lp1899
(lp1900
F99.614
aa(lp1901
F0.206
aa(lp1902
F56.333
aa(lp1903
F3.6622511984876724
aF4.434797290322563
aF93.88888899999999
atp1904
sS'17000'
p1905
((lp1906
(lp1907
F90.0
aa(lp1908
F80.0
aa(lp1909
F90.0
aa(lp1910
F0.0
aF0.0
aI0
atp1911
sS'16168'
p1912
((lp1913
(lp1914
F74.386
aa(lp1915
F90.825
aa(lp1916
F41.0
aa(lp1917
F46.60836742857136
aF7.6679265873015945
aF173.58333333333334
atp1918
sS'16969'
p1919
((lp1920
(lp1921
F90.0
aa(lp1922
F0.0
aa(lp1923
F80.0
aa(lp1924
F0.0
aF0.0
aF0.0
atp1925
sS'16847'
p1926
((lp1927
(lp1928
F90.0
aa(lp1929
F90.0
aa(lp1930
F90.0
aa(lp1931
F0.0
aI0
aI0
atp1932
sS'16844'
p1933
((lp1934
(lp1935
F89.071
aa(lp1936
F43.333
aa(lp1937
F70.0
aa(lp1938
F5.209183857142861
aF88.88888899999999
aF0.0
atp1939
sS'16845'
p1940
((lp1941
(lp1942
F90.0
aa(lp1943
F80.0
aa(lp1944
F90.0
aa(lp1945
F0.0
aF0.0
aI0
atp1946
sS'16842'
p1947
((lp1948
(lp1949
F90.0
aa(lp1950
F70.0
aa(lp1951
F90.0
aa(lp1952
F0.0
aF0.0
aI0
atp1953
sS'16843'
p1954
((lp1955
(lp1956
F90.0
aa(lp1957
F80.0
aa(lp1958
F70.0
aa(lp1959
F0.0
aF0.0
aF0.0
atp1960
sS'16840'
p1961
((lp1962
(lp1963
F90.0
aa(lp1964
F90.0
aa(lp1965
F90.0
aa(lp1966
F0.0
aI0
aI0
atp1967
sS'16841'
p1968
((lp1969
(lp1970
F90.0
aa(lp1971
F100.0
aa(lp1972
F90.0
aa(lp1973
F0.0
aF0.0
aI0
atp1974
sS'16961'
p1975
((lp1976
(lp1977
F90.0
aa(lp1978
F80.0
aa(lp1979
F80.0
aa(lp1980
F0.0
aF0.0
aI0
atp1981
sS'16960'
p1982
((lp1983
(lp1984
F90.0
aa(lp1985
F80.0
aa(lp1986
F90.0
aa(lp1987
F0.0
aF0.0
aI0
atp1988
sS'16963'
p1989
((lp1990
(lp1991
F90.0
aa(lp1992
F0.0
aa(lp1993
F90.0
aa(lp1994
F0.0
aF0.0
aI0
atp1995
sS'16962'
p1996
((lp1997
(lp1998
F90.0
aa(lp1999
F2.5
aa(lp2000
F60.0
aa(lp2001
F0.0
aF18.75
aF100.0
atp2002
sS'16965'
p2003
((lp2004
(lp2005
F0.0
aa(lp2006
F90.0
aa(lp2007
F67.333
aa(lp2008
F0.0
aF0.0
aF46.22222233333332
atp2009
sS'16964'
p2010
((lp2011
(lp2012
F90.0
aa(lp2013
F50.0
aa(lp2014
F80.0
aa(lp2015
F0.0
aF0.0
aF0.0
atp2016
sS'16848'
p2017
((lp2018
(lp2019
F90.0
aa(lp2020
F80.0
aa(lp2021
F90.0
aa(lp2022
F0.0
aF0.0
aI0
atp2023
sS'16849'
p2024
((lp2025
(lp2026
F80.0
aa(lp2027
F90.0
aa(lp2028
F90.0
aa(lp2029
F0.0
aF0.0
aI0
atp2030
sS'16640'
p2031
((lp2032
(lp2033
F93.927
aa(lp2034
F0.392
aa(lp2035
F51.867
aa(lp2036
F47.5542464311926
aF5.248591835051547
aF150.84888899999999
atp2037
sS'16641'
p2038
((lp2039
(lp2040
F39.244
aa(lp2041
F0.0
aa(lp2042
F85.824
aa(lp2043
F99.429136
aF0.0
aF66.07897599999998
atp2044
sS'16134'
p2045
((lp2046
(lp2047
F90.0
aa(lp2048
F80.0
aa(lp2049
F80.0
aa(lp2050
F0.0
aF0.0
aI0
atp2051
sS'16135'
p2052
((lp2053
(lp2054
F0.0
aa(lp2055
F90.0
aa(lp2056
F78.5
aa(lp2057
F0.0
aF0.0
aF11.25
atp2058
sS'16132'
p2059
((lp2060
(lp2061
F90.0
aa(lp2062
F80.0
aa(lp2063
F90.0
aa(lp2064
F0.0
aF0.0
aI0
atp2065
sS'16871'
p2066
((lp2067
(lp2068
F81.972
aa(lp2069
F37.022
aa(lp2070
F-0.0
aa(lp2071
F96.1118825915493
aF91.13283955555544
aF0.0
atp2072
sS'16133'
p2073
((lp2074
(lp2075
F83.823
aa(lp2076
F-0.0
aa(lp2077
F40.169
aa(lp2078
F98.0162846313994
aF0.0
aF99.97127286440714
atp2079
sS'16870'
p2080
((lp2081
(lp2082
F90.0
aa(lp2083
F90.0
aa(lp2084
F90.0
aa(lp2085
F0.0
aI0
aI0
atp2086
sS'16902'
p2087
((lp2088
(lp2089
F90.0
aa(lp2090
F10.0
aa(lp2091
F80.0
aa(lp2092
F0.0
aF0.0
aF0.0
atp2093
sS'16130'
p2094
((lp2095
(lp2096
F90.0
aa(lp2097
F80.0
aa(lp2098
F90.0
aa(lp2099
F0.0
aF0.0
aI0
atp2100
sS'16131'
p2101
((lp2102
(lp2103
F90.0
aa(lp2104
F70.0
aa(lp2105
F80.0
aa(lp2106
F0.0
aF0.0
aF0.0
atp2107
sS'16879'
p2108
((lp2109
(lp2110
F90.0
aa(lp2111
F80.0
aa(lp2112
F80.0
aa(lp2113
F0.0
aF0.0
aI0
atp2114
sS'16662'
p2115
((lp2116
(lp2117
F90.0
aa(lp2118
F0.0
aa(lp2119
F77.857
aa(lp2120
F0.0
aF0.0
aF16.83673471428571
atp2121
sS'16663'
p2122
((lp2123
(lp2124
F90.0
aa(lp2125
F0.909
aa(lp2126
F36.667
aa(lp2127
F0.0
aF8.264462818181816
aF88.88888899999999
atp2128
sS'16660'
p2129
((lp2130
(lp2131
F0.0
aa(lp2132
F85.75
aa(lp2133
F40.0
aa(lp2134
F0.0
aF49.4375
aF100.0
atp2135
sS'16661'
p2136
((lp2137
(lp2138
F1.926
aa(lp2139
F81.249
aa(lp2140
F37.477
aa(lp2141
F21.59924052599388
aF148.26769450649348
aF110.37928314364672
atp2142
sS'16666'
p2143
((lp2144
(lp2145
F0.741
aa(lp2146
F89.641
aa(lp2147
F63.9
aa(lp2148
F14.266118037037039
aF13.717291256410244
aF104.29
atp2149
sS'16667'
p2150
((lp2151
(lp2152
F80.0
aa(lp2153
F90.0
aa(lp2154
F90.0
aa(lp2155
F0.0
aF0.0
aI0
atp2156
sS'16664'
p2157
((lp2158
(lp2159
F0.0
aa(lp2160
F87.5
aa(lp2161
F57.0
aa(lp2162
F0.0
aF18.75
aF0.0
atp2163
sS'16665'
p2164
((lp2165
(lp2166
F90.0
aa(lp2167
F0.0
aa(lp2168
F90.0
aa(lp2169
F0.0
aF0.0
aI0
atp2170
sS'16668'
p2171
((lp2172
(lp2173
F85.636
aa(lp2174
F22.5
aa(lp2175
F50.0
aa(lp2176
F53.68595054545451
aF168.75
aF0.0
atp2177
sS'16669'
p2178
((lp2179
(lp2180
F80.0
aa(lp2181
F40.0
aa(lp2182
F90.556
aa(lp2183
F0.0
aF0.0
aF5.246913777777776
atp2184
sS'16099'
p2185
((lp2186
(lp2187
F80.0
aa(lp2188
F90.0
aa(lp2189
F80.0
aa(lp2190
F0.0
aF0.0
aI0
atp2191
sS'16098'
p2192
((lp2193
(lp2194
F87.647
aa(lp2195
F-0.0
aa(lp2196
F35.0
aa(lp2197
F17.993079588235297
aF0.0
aF75.0
atp2198
sS'16549'
p2199
((lp2200
(lp2201
F41.117
aa(lp2202
F72.879
aa(lp2203
F-0.0
aa(lp2204
F98.75300894981112
aF47.773186454545176
aF0.0
atp2205
sS'16548'
p2206
((lp2207
(lp2208
F88.478
aa(lp2209
F50.0
aa(lp2210
F30.0
aa(lp2211
F12.90170139130434
aF0.0
aF0.0
atp2212
sS'16091'
p2213
((lp2214
(lp2215
F0.0
aa(lp2216
F90.0
aa(lp2217
F50.0
aa(lp2218
F0.0
aF0.0
aF0.0
atp2219
sS'16090'
p2220
((lp2221
(lp2222
F90.0
aa(lp2223
F-0.0
aa(lp2224
F80.0
aa(lp2225
F0.0
aF0.0
aF0.0
atp2226
sS'16093'
p2227
((lp2228
(lp2229
F90.0
aa(lp2230
F80.0
aa(lp2231
F90.0
aa(lp2232
F0.0
aF0.0
aI0
atp2233
sS'16092'
p2234
((lp2235
(lp2236
F90.0
aa(lp2237
F80.0
aa(lp2238
F90.0
aa(lp2239
F0.0
aF0.0
aI0
atp2240
sS'16095'
p2241
((lp2242
(lp2243
F38.889
aa(lp2244
F86.111
aa(lp2245
F0.0
aa(lp2246
F98.76543211111112
aF45.987654333333346
aF0.0
atp2247
sS'16094'
p2248
((lp2249
(lp2250
F90.0
aa(lp2251
F50.0
aa(lp2252
F80.0
aa(lp2253
F0.0
aF0.0
aF0.0
atp2254
sS'16097'
p2255
((lp2256
(lp2257
F18.462
aa(lp2258
F58.824
aa(lp2259
F88.533
aa(lp2260
F213.01775169230774
aF98.61591717647053
aF12.51555566666668
atp2261
sS'16096'
p2262
((lp2263
(lp2264
F2.058
aa(lp2265
F96.659
aa(lp2266
F51.296
aa(lp2267
F27.536291922471268
aF28.931906435540572
aF248.47351843902504
atp2268
sS'16064'
p2269
((lp2270
(lp2271
F90.0
aa(lp2272
F90.0
aa(lp2273
F90.0
aa(lp2274
F0.0
aI0
aI0
atp2275
sS'16065'
p2276
((lp2277
(lp2278
F89.798
aa(lp2279
F0.0
aa(lp2280
F60.0
aa(lp2281
F1.9754814193548254
aF0.0
aF100.0
atp2282
sS'16066'
p2283
((lp2284
(lp2285
F89.514
aa(lp2286
F62.143
aa(lp2287
F15.0
aa(lp2288
F4.624807111111109
aF95.40816328571431
aF225.0
atp2289
sS'16067'
p2290
((lp2291
(lp2292
F90.0
aa(lp2293
F80.0
aa(lp2294
F90.0
aa(lp2295
F0.0
aF0.0
aI0
atp2296
sS'16060'
p2297
((lp2298
(lp2299
F80.0
aa(lp2300
F90.0
aa(lp2301
F90.0
aa(lp2302
F0.0
aF0.0
aI0
atp2303
sS'16061'
p2304
((lp2305
(lp2306
F50.0
aa(lp2307
F90.0
aa(lp2308
F80.0
aa(lp2309
F0.0
aF0.0
aF0.0
atp2310
sS'16062'
p2311
((lp2312
(lp2313
F90.0
aa(lp2314
F1.765
aa(lp2315
F65.185
aa(lp2316
F0.0
aF49.826989705882355
aF73.11385462962961
atp2317
sS'16063'
p2318
((lp2319
(lp2320
F87.544
aa(lp2321
F44.0
aa(lp2322
F0.0
aa(lp2323
F36.07263775438598
aF84.0
aF0.0
atp2324
sS'16147'
p2325
((lp2326
(lp2327
F90.0
aa(lp2328
F0.0
aa(lp2329
F90.0
aa(lp2330
F0.0
aF0.0
aI0
atp2331
sS'16146'
p2332
((lp2333
(lp2334
F0.0
aa(lp2335
F88.209
aa(lp2336
F40.0
aa(lp2337
F0.0
aF20.67275562686569
aF100.0
atp2338
sS'16145'
p2339
((lp2340
(lp2341
F80.652
aa(lp2342
F0.0
aa(lp2343
F47.692
aa(lp2344
F97.40075617391301
aF0.0
aF40.82840246153843
atp2345
sS'16144'
p2346
((lp2347
(lp2348
F72.863
aa(lp2349
F0.0
aa(lp2350
F45.913
aa(lp2351
F48.66743566666672
aF0.0
aF65.03097284615362
atp2352
sS'16068'
p2353
((lp2354
(lp2355
F90.9
aa(lp2356
F0.0
aa(lp2357
F80.0
aa(lp2358
F7.290000000000002
aF0.0
aF0.0
atp2359
sS'16069'
p2360
((lp2361
(lp2362
F80.0
aa(lp2363
F90.0
aa(lp2364
F90.0
aa(lp2365
F0.0
aF0.0
aI0
atp2366
sS'16141'
p2367
((lp2368
(lp2369
F-0.0
aa(lp2370
F30.341
aa(lp2371
F85.726
aa(lp2372
F0.0
aF6.710609227571355
aF66.7963706058091
atp2373
sS'16140'
p2374
((lp2375
(lp2376
F64.909
aa(lp2377
F30.0
aa(lp2378
F88.205
aa(lp2379
F75.90082645454542
aF0.0
aF14.72715320512822
atp2380
sS'16891'
p2381
((lp2382
(lp2383
F90.0
aa(lp2384
F80.0
aa(lp2385
F90.0
aa(lp2386
F0.0
aF0.0
aI0
atp2387
sS'16890'
p2388
((lp2389
(lp2390
F39.921
aa(lp2391
F82.177
aa(lp2392
F0.0
aa(lp2393
F99.99380005511811
aF91.85987321768702
aF0.0
atp2394
sS'16325'
p2395
((lp2396
(lp2397
F80.0
aa(lp2398
F90.0
aa(lp2399
F80.0
aa(lp2400
F0.0
aF0.0
aI0
atp2401
sS'16324'
p2402
((lp2403
(lp2404
F80.0
aa(lp2405
F80.0
aa(lp2406
F80.0
aa(lp2407
F0.0
aI0
aI0
atp2408
sS'16323'
p2409
((lp2410
(lp2411
F0.011
aa(lp2412
F97.125
aa(lp2413
F49.421
aa(lp2414
F0.04558385714285717
aF33.776041666666664
aF197.5069252105264
atp2415
sS'16322'
p2416
((lp2417
(lp2418
F90.0
aa(lp2419
F90.0
aa(lp2420
F90.0
aa(lp2421
F0.0
aI0
aI0
atp2422
sS'16488'
p2423
((lp2424
(lp2425
F80.0
aa(lp2426
F90.0
aa(lp2427
F90.0
aa(lp2428
F0.0
aF0.0
aI0
atp2429
sS'16489'
p2430
((lp2431
(lp2432
F90.0
aa(lp2433
F50.0
aa(lp2434
F30.0
aa(lp2435
F0.0
aF0.0
aF0.0
atp2436
sS'16486'
p2437
((lp2438
(lp2439
F89.412
aa(lp2440
F30.0
aa(lp2441
F50.0
aa(lp2442
F5.536332235294119
aF0.0
aF0.0
atp2443
sS'16487'
p2444
((lp2445
(lp2446
F88.556
aa(lp2447
F62.364
aa(lp2448
F0.667
aa(lp2449
F58.69135822222225
aF88.04958690909092
aF0.8888889999999999
atp2450
sS'16484'
p2451
((lp2452
(lp2453
F90.0
aa(lp2454
F80.0
aa(lp2455
F90.0
aa(lp2456
F0.0
aF0.0
aI0
atp2457
sS'16485'
p2458
((lp2459
(lp2460
F90.0
aa(lp2461
F80.0
aa(lp2462
F90.0
aa(lp2463
F0.0
aF0.0
aI0
atp2464
sS'16482'
p2465
((lp2466
(lp2467
F90.0
aa(lp2468
F80.0
aa(lp2469
F80.0
aa(lp2470
F0.0
aF0.0
aI0
atp2471
sS'16483'
p2472
((lp2473
(lp2474
F90.0
aa(lp2475
F80.0
aa(lp2476
F90.0
aa(lp2477
F0.0
aF0.0
aI0
atp2478
sS'16480'
p2479
((lp2480
(lp2481
F10.0
aa(lp2482
F90.0
aa(lp2483
F10.0
aa(lp2484
F0.0
aF0.0
aI0
atp2485
sS'16481'
p2486
((lp2487
(lp2488
F11.739
aa(lp2489
F62.696
aa(lp2490
F89.867
aa(lp2491
F214.3667296956521
aF92.7334594782613
aF1.3155556666666597
atp2492
sS'16248'
p2493
((lp2494
(lp2495
F89.67
aa(lp2496
F70.0
aa(lp2497
F41.5
aa(lp2498
F3.1880208791208857
aF0.0
aF172.75
atp2499
sS'16249'
p2500
((lp2501
(lp2502
F72.131
aa(lp2503
F90.128
aa(lp2504
F40.526
aa(lp2505
F16.769685590163924
aF1.265614769230771
aF257.6177286315789
atp2506
sS'16718'
p2507
((lp2508
(lp2509
F90.0
aa(lp2510
F80.0
aa(lp2511
F90.0
aa(lp2512
F0.0
aF0.0
aI0
atp2513
sS'16719'
p2514
((lp2515
(lp2516
F80.0
aa(lp2517
F90.0
aa(lp2518
F90.0
aa(lp2519
F0.0
aF0.0
aI0
atp2520
sS'16716'
p2521
((lp2522
(lp2523
F81.154
aa(lp2524
F-0.0
aa(lp2525
F43.793
aa(lp2526
F94.82248523076925
aF0.0
aF85.61236624137922
atp2527
sS'16717'
p2528
((lp2529
(lp2530
F84.949
aa(lp2531
F41.471
aa(lp2532
F-0.0
aa(lp2533
F75.50249998989904
aF97.83737041176471
aF0.0
atp2534
sS'16714'
p2535
((lp2536
(lp2537
F90.0
aa(lp2538
F90.0
aa(lp2539
F90.0
aa(lp2540
F0.0
aI0
aI0
atp2541
sS'16715'
p2542
((lp2543
(lp2544
F81.017
aa(lp2545
F0.0
aa(lp2546
F49.524
aa(lp2547
F87.1014076440678
aF0.0
aF9.297052190476206
atp2548
sS'16712'
p2549
((lp2550
(lp2551
F80.526
aa(lp2552
F38.808
aa(lp2553
F0.0
aa(lp2554
F98.67036021052644
aF98.57900969536398
aF0.0
atp2555
sS'16713'
p2556
((lp2557
(lp2558
F38.182
aa(lp2559
F0.526
aa(lp2560
F91.0
aa(lp2561
F96.69421490909089
aF4.986149684210527
aF9.0
atp2562
sS'16710'
p2563
((lp2564
(lp2565
F62.857
aa(lp2566
F10.0
aa(lp2567
F90.0
aa(lp2568
F91.83673471428571
aF0.0
aF0.0
atp2569
sS'16711'
p2570
((lp2571
(lp2572
F53.448
aa(lp2573
F89.731
aa(lp2574
F0.0
aa(lp2575
F84.66111779310341
aF2.618190596412554
aF0.0
atp2576
sS'16329'
p2577
((lp2578
(lp2579
F88.333
aa(lp2580
F70.0
aa(lp2581
F46.667
aa(lp2582
F13.88888899999999
aF0.0
aF55.555555666666656
atp2583
sS'16392'
p2584
((lp2585
(lp2586
F88.571
aa(lp2587
F43.4
aa(lp2588
F70.0
aa(lp2589
F12.244898142857142
aF118.44000000000017
aF0.0
atp2590
sS'16393'
p2591
((lp2592
(lp2593
F80.571
aa(lp2594
F0.0
aa(lp2595
F44.938
aa(lp2596
F125.3877552857143
aF0.0
aF74.43359399999999
atp2597
sS'16390'
p2598
((lp2599
(lp2600
F50.0
aa(lp2601
F75.484
aa(lp2602
F30.0
aa(lp2603
F0.0
aF76.37877212903224
aF0.0
atp2604
sS'16391'
p2605
((lp2606
(lp2607
F63.333
aa(lp2608
F15.0
aa(lp2609
F89.42
aa(lp2610
F88.88888900000005
aF225.0
aF5.461037681159432
atp2611
sS'16396'
p2612
((lp2613
(lp2614
F90.0
aa(lp2615
F30.0
aa(lp2616
F40.0
aa(lp2617
F0.0
aF0.0
aF0.0
atp2618
sS'16397'
p2619
((lp2620
(lp2621
F90.0
aa(lp2622
F80.0
aa(lp2623
F90.0
aa(lp2624
F0.0
aF0.0
aI0
atp2625
sS'16394'
p2626
((lp2627
(lp2628
F80.0
aa(lp2629
F90.0
aa(lp2630
F80.0
aa(lp2631
F0.0
aF0.0
aI0
atp2632
sS'16395'
p2633
((lp2634
(lp2635
F90.0
aa(lp2636
F80.0
aa(lp2637
F90.0
aa(lp2638
F0.0
aF0.0
aI0
atp2639
sS'16398'
p2640
((lp2641
(lp2642
F90.0
aa(lp2643
F90.0
aa(lp2644
F90.0
aa(lp2645
F0.0
aI0
aI0
atp2646
sS'16399'
p2647
((lp2648
(lp2649
F77.143
aa(lp2650
F90.0
aa(lp2651
F38.0
aa(lp2652
F20.408163285714288
aF0.0
aF96.0
atp2653
sS'16553'
p2654
((lp2655
(lp2656
F82.568
aa(lp2657
F-0.0
aa(lp2658
F42.542
aa(lp2659
F89.35354291891888
aF0.0
aF93.53634027118636
atp2660
sS'16433'
p2661
((lp2662
(lp2663
F80.0
aa(lp2664
F90.0
aa(lp2665
F90.0
aa(lp2666
F0.0
aF0.0
aI0
atp2667
sS'16432'
p2668
((lp2669
(lp2670
F90.0
aa(lp2671
F80.0
aa(lp2672
F90.0
aa(lp2673
F0.0
aF0.0
aI0
atp2674
sS'16431'
p2675
((lp2676
(lp2677
F80.0
aa(lp2678
F90.0
aa(lp2679
F90.0
aa(lp2680
F0.0
aF0.0
aI0
atp2681
sS'16430'
p2682
((lp2683
(lp2684
F90.0
aa(lp2685
F90.0
aa(lp2686
F90.0
aa(lp2687
F0.0
aI0
aI0
atp2688
sS'16437'
p2689
((lp2690
(lp2691
F43.704
aa(lp2692
F88.065
aa(lp2693
F0.0
aa(lp2694
F86.28257896296299
aF34.963579838709606
aF0.0
atp2695
sS'16436'
p2696
((lp2697
(lp2698
F3.68
aa(lp2699
F41.211
aa(lp2700
F73.271
aa(lp2701
F52.99816208178444
aF89.52683155900637
aF119.20691763551424
atp2702
sS'16435'
p2703
((lp2704
(lp2705
F75.0
aa(lp2706
F50.0
aa(lp2707
F90.0
aa(lp2708
F25.0
aF0.0
aF0.0
atp2709
sS'16434'
p2710
((lp2711
(lp2712
F90.0
aa(lp2713
F90.0
aa(lp2714
F90.0
aa(lp2715
F0.0
aI0
aI0
atp2716
sS'16439'
p2717
((lp2718
(lp2719
F37.251
aa(lp2720
F0.0
aa(lp2721
F78.437
aa(lp2722
F92.44553901169641
aF0.0
aF97.55859399999989
atp2723
sS'16438'
p2724
((lp2725
(lp2726
F90.0
aa(lp2727
F80.0
aa(lp2728
F90.0
aa(lp2729
F0.0
aF0.0
aI0
atp2730
sS'16440'
p2731
((lp2732
(lp2733
F80.0
aa(lp2734
F90.0
aa(lp2735
F90.0
aa(lp2736
F0.0
aF0.0
aI0
atp2737
sS'16808'
p2738
((lp2739
(lp2740
F46.0
aa(lp2741
F70.0
aa(lp2742
F90.0
aa(lp2743
F64.0
aF0.0
aF0.0
atp2744
sS'16809'
p2745
((lp2746
(lp2747
F43.632
aa(lp2748
F0.0
aa(lp2749
F75.379
aa(lp2750
F86.80649126457399
aF0.0
aF75.89060651724122
atp2751
sS'16802'
p2752
((lp2753
(lp2754
F0.0
aa(lp2755
F86.667
aa(lp2756
F40.0
aa(lp2757
F0.0
aF44.444444555555606
aF100.0
atp2758
sS'16803'
p2759
((lp2760
(lp2761
F90.0
aa(lp2762
F80.0
aa(lp2763
F90.0
aa(lp2764
F0.0
aF0.0
aI0
atp2765
sS'16800'
p2766
((lp2767
(lp2768
F80.0
aa(lp2769
F90.0
aa(lp2770
F90.0
aa(lp2771
F0.0
aF0.0
aI0
atp2772
sS'16801'
p2773
((lp2774
(lp2775
F90.0
aa(lp2776
F90.0
aa(lp2777
F90.0
aa(lp2778
F0.0
aI0
aI0
atp2779
sS'16806'
p2780
((lp2781
(lp2782
F90.0
aa(lp2783
F80.0
aa(lp2784
F90.0
aa(lp2785
F0.0
aF0.0
aI0
atp2786
sS'16807'
p2787
((lp2788
(lp2789
F90.0
aa(lp2790
F80.0
aa(lp2791
F90.0
aa(lp2792
F0.0
aF0.0
aI0
atp2793
sS'16804'
p2794
((lp2795
(lp2796
F39.194
aa(lp2797
F-0.0
aa(lp2798
F76.621
aa(lp2799
F99.3496359999998
aF0.0
aF88.5802616896552
atp2800
sS'16805'
p2801
((lp2802
(lp2803
F90.0
aa(lp2804
F80.0
aa(lp2805
F90.0
aa(lp2806
F0.0
aF0.0
aI0
atp2807
sS'16138'
p2808
((lp2809
(lp2810
F41.379
aa(lp2811
F85.156
aa(lp2812
F66.333
aa(lp2813
F87.75267548275859
aF28.100586000000018
aF23.222222333333338
atp2814
sS'16139'
p2815
((lp2816
(lp2817
F90.0
aa(lp2818
F95.0
aa(lp2819
F90.0
aa(lp2820
F0.0
aF0.0
aI0
atp2821
sS'16936'
p2822
((lp2823
(lp2824
F7.476
aa(lp2825
F97.724
aa(lp2826
F50.566
aa(lp2827
F17.868480761904777
aF31.372175999999943
aF5.339978641509435
atp2828
sS'16937'
p2829
((lp2830
(lp2831
F44.286
aa(lp2832
F88.571
aa(lp2833
F0.0
aa(lp2834
F81.63265314285715
aF23.673469571428562
aF0.0
atp2835
sS'16934'
p2836
((lp2837
(lp2838
F50.0
aa(lp2839
F23.514
aa(lp2840
F74.0
aa(lp2841
F0.0
aF152.52008789189208
aF62.62068965517241
atp2842
sS'16935'
p2843
((lp2844
(lp2845
F100.0
aa(lp2846
F90.0
aa(lp2847
F100.0
aa(lp2848
F0.0
aF0.0
aI0
atp2849
sS'16932'
p2850
((lp2851
(lp2852
F100.0
aa(lp2853
F80.0
aa(lp2854
F90.0
aa(lp2855
F0.0
aF0.0
aF0.0
atp2856
sS'16933'
p2857
((lp2858
(lp2859
F-0.0
aa(lp2860
F85.556
aa(lp2861
F45.556
aa(lp2862
F0.0
aF46.91358044444444
aF69.13580266666666
atp2863
sS'16930'
p2864
((lp2865
(lp2866
F90.0
aa(lp2867
F-0.0
aa(lp2868
F90.0
aa(lp2869
I0
aF0.0
aF0.0
atp2870
sS'16931'
p2871
((lp2872
(lp2873
F-0.0
aa(lp2874
F86.636
aa(lp2875
F37.389
aa(lp2876
F0.0
aF53.66009047004598
aF93.18025093630554
atp2877
sS'16318'
p2878
((lp2879
(lp2880
F88.913
aa(lp2881
F-0.0
aa(lp2882
F43.333
aa(lp2883
F14.035916826086945
aF0.0
aF88.88888899999999
atp2884
sS'16938'
p2885
((lp2886
(lp2887
F89.459
aa(lp2888
F0.0
aa(lp2889
F60.0
aa(lp2890
F5.113221540540544
aF0.0
aF100.0
atp2891
sS'16939'
p2892
((lp2893
(lp2894
F90.0
aa(lp2895
F80.0
aa(lp2896
F100.0
aa(lp2897
F0.0
aF0.0
aF0.0
atp2898
sS'16448'
p2899
((lp2900
(lp2901
F90.0
aa(lp2902
F0.0
aa(lp2903
F80.0
aa(lp2904
F0.0
aF0.0
aF0.0
atp2905
sS'16319'
p2906
((lp2907
(lp2908
F90.0
aa(lp2909
F80.0
aa(lp2910
F90.0
aa(lp2911
F0.0
aF0.0
aI0
atp2912
sS'16357'
p2913
((lp2914
(lp2915
F89.318
aa(lp2916
F0.0
aa(lp2917
F35.0
aa(lp2918
F10.898760363636363
aF0.0
aF75.0
atp2919
sS'16946'
p2920
((lp2921
(lp2922
F50.0
aa(lp2923
F90.0
aa(lp2924
F70.0
aa(lp2925
F0.0
aF0.0
aF0.0
atp2926
sS'16709'
p2927
((lp2928
(lp2929
F-0.0
aa(lp2930
F75.9
aa(lp2931
F43.913
aa(lp2932
F0.0
aF82.19000000000001
aF84.6880907391303
atp2933
sS'16757'
p2934
((lp2935
(lp2936
F90.0
aa(lp2937
F90.0
aa(lp2938
F90.0
aa(lp2939
F0.0
aI0
aI0
atp2940
sS'16708'
p2941
((lp2942
(lp2943
F99.167
aa(lp2944
F0.0
aa(lp2945
F50.0
aa(lp2946
F7.638889
aF0.0
aF0.0
atp2947
sS'16059'
p2948
((lp2949
(lp2950
F90.0
aa(lp2951
F0.0
aa(lp2952
F0.0
aa(lp2953
F0.0
aF0.0
aI0
atp2954
sS'16058'
p2955
((lp2956
(lp2957
F59.375
aa(lp2958
F90.0
aa(lp2959
F27.692
aa(lp2960
F99.609375
aF0.0
aF63.90532553846154
atp2961
sS'16509'
p2962
((lp2963
(lp2964
F43.407
aa(lp2965
F74.0
aa(lp2966
F0.0
aa(lp2967
F88.39512152747258
aF59.0
aF0.0
atp2968
sS'16508'
p2969
((lp2970
(lp2971
F39.176
aa(lp2972
F78.298
aa(lp2973
F0.0
aa(lp2974
F99.32179952941166
aF82.2091444255319
aF0.0
atp2975
sS'16055'
p2976
((lp2977
(lp2978
F90.0
aa(lp2979
F80.0
aa(lp2980
F90.0
aa(lp2981
F0.0
aF0.0
aI0
atp2982
sS'16054'
p2983
((lp2984
(lp2985
F79.381
aa(lp2986
F0.0
aa(lp2987
F45.579
aa(lp2988
F99.61625834513283
aF0.0
aF68.8753462631578
atp2989
sS'16057'
p2990
((lp2991
(lp2992
F90.0
aa(lp2993
F80.0
aa(lp2994
F90.0
aa(lp2995
F0.0
aF0.0
aI0
atp2996
sS'16056'
p2997
((lp2998
(lp2999
F87.143
aa(lp3000
F-0.0
aa(lp3001
F37.368
aa(lp3002
F48.97959185714283
aF0.0
aF93.07479242105263
atp3003
sS'16051'
p3004
((lp3005
(lp3006
F90.0
aa(lp3007
F80.0
aa(lp3008
F90.0
aa(lp3009
F0.0
aF0.0
aI0
atp3010
sS'16050'
p3011
((lp3012
(lp3013
F53.279
aa(lp3014
F30.0
aa(lp3015
F-0.0
aa(lp3016
F64.55018641062921
aF0.0
aF0.0
atp3017
sS'16053'
p3018
((lp3019
(lp3020
F0.0
aa(lp3021
F90.0
aa(lp3022
F70.0
aa(lp3023
F0.0
aF0.0
aF0.0
atp3024
sS'16052'
p3025
((lp3026
(lp3027
F39.669
aa(lp3028
F-0.0
aa(lp3029
F82.5
aa(lp3030
F99.89035570198656
aF0.0
aF89.27631578947368
atp3031
sS'16705'
p3032
((lp3033
(lp3034
F-0.0
aa(lp3035
F41.176
aa(lp3036
F80.444
aa(lp3037
F0.0
aF98.61591717647072
aF99.8024693333332
atp3038
sS'16704'
p3039
((lp3040
(lp3041
F75.0
aa(lp3042
F90.0
aa(lp3043
F10.0
aa(lp3044
F25.0
aF0.0
aF0.0
atp3045
sS'16754'
p3046
((lp3047
(lp3048
F57.883
aa(lp3049
F89.879
aa(lp3050
F23.023
aa(lp3051
F95.51920724817529
aF1.1926691690140836
aF160.62736620930218
atp3052
sS'16850'
p3053
((lp3054
(lp3055
F90.0
aa(lp3056
F80.0
aa(lp3057
F90.0
aa(lp3058
F0.0
aF0.0
aI0
atp3059
sS'16259'
p3060
((lp3061
(lp3062
F100.0
aa(lp3063
F40.0
aa(lp3064
F90.0
aa(lp3065
F0.0
aF100.0
aF0.0
atp3066
sS'16258'
p3067
((lp3068
(lp3069
F100.0
aa(lp3070
F90.0
aa(lp3071
F77.5
aa(lp3072
F0.0
aF0.0
aF6.25
atp3073
sS'16701'
p3074
((lp3075
(lp3076
F73.529
aa(lp3077
F-0.0
aa(lp3078
F37.593
aa(lp3079
F58.13148805882356
aF0.0
aF94.20438974074065
atp3080
sS'16700'
p3081
((lp3082
(lp3083
F99.988
aa(lp3084
F90.0
aa(lp3085
F97.0
aa(lp3086
F0.01190303614457825
aF0.0
aF1.0
atp3087
sS'16028'
p3088
((lp3089
(lp3090
F94.667
aa(lp3091
F-0.0
aa(lp3092
F80.769
aa(lp3093
F13.252525363636353
aF0.0
aF3.254437923076924
atp3094
sS'16029'
p3095
((lp3096
(lp3097
F90.0
aa(lp3098
F87.0
aa(lp3099
F90.0
aa(lp3100
F0.0
aF0.0
aI0
atp3101
sS'16559'
p3102
((lp3103
(lp3104
F99.478
aa(lp3105
F11.8
aa(lp3106
F46.5
aa(lp3107
F4.24952747826087
aF120.96
aF84.75
atp3108
sS'16944'
p3109
((lp3110
(lp3111
F80.0
aa(lp3112
F90.0
aa(lp3113
F80.0
aa(lp3114
F0.0
aF0.0
aI0
atp3115
sS'16703'
p3116
((lp3117
(lp3118
F90.0
aa(lp3119
F80.0
aa(lp3120
F80.0
aa(lp3121
F0.0
aF0.0
aI0
atp3122
sS'16755'
p3123
((lp3124
(lp3125
F90.0
aa(lp3126
F80.0
aa(lp3127
F80.0
aa(lp3128
F0.0
aF0.0
aI0
atp3129
sS'16020'
p3130
((lp3131
(lp3132
F60.312
aa(lp3133
F85.57
aa(lp3134
F11.875
aa(lp3135
F84.27734399999994
aF47.46034303797469
aF165.234375
atp3136
sS'16021'
p3137
((lp3138
(lp3139
F90.0
aa(lp3140
F80.0
aa(lp3141
F90.0
aa(lp3142
F0.0
aF0.0
aI0
atp3143
sS'16022'
p3144
((lp3145
(lp3146
F50.0
aa(lp3147
F73.947
aa(lp3148
F-0.0
aa(lp3149
F0.0
aF63.36565110526312
aF0.0
atp3150
sS'16702'
p3151
((lp3152
(lp3153
F91.874
aa(lp3154
F20.267
aa(lp3155
F62.925
aa(lp3156
F41.691206232558095
aF216.8238238837207
aF95.50742238562131
atp3157
sS'16024'
p3158
((lp3159
(lp3160
F80.0
aa(lp3161
F90.0
aa(lp3162
F90.0
aa(lp3163
F0.0
aF0.0
aI0
atp3164
sS'16025'
p3165
((lp3166
(lp3167
F33.636
aa(lp3168
F89.107
aa(lp3169
F0.0
aa(lp3170
F59.504132363636366
aF11.702806142857158
aF0.0
atp3171
sS'16026'
p3172
((lp3173
(lp3174
F80.0
aa(lp3175
F90.0
aa(lp3176
F80.0
aa(lp3177
F0.0
aF0.0
aI0
atp3178
sS'16027'
p3179
((lp3180
(lp3181
F90.0
aa(lp3182
F80.0
aa(lp3183
F90.0
aa(lp3184
F0.0
aF0.0
aI0
atp3185
sS'16200'
p3186
((lp3187
(lp3188
F49.091
aa(lp3189
F0.0
aa(lp3190
F79.286
aa(lp3191
F17.35537190909091
aF0.0
aF92.34693885714289
atp3192
sS'16201'
p3193
((lp3194
(lp3195
F-0.0
aa(lp3196
F81.538
aa(lp3197
F37.059
aa(lp3198
F0.0
aF97.63313630769234
aF91.34948100000001
atp3199
sS'16202'
p3200
((lp3201
(lp3202
F89.326
aa(lp3203
F-0.0
aa(lp3204
F50.0
aa(lp3205
F12.666616425531858
aF0.0
aF0.0
atp3206
sS'16751'
p3207
((lp3208
(lp3209
F90.0
aa(lp3210
F80.0
aa(lp3211
F80.0
aa(lp3212
F0.0
aF0.0
aI0
atp3213
sS'16204'
p3214
((lp3215
(lp3216
F90.0
aa(lp3217
F80.0
aa(lp3218
F90.0
aa(lp3219
F0.0
aF0.0
aI0
atp3220
sS'16205'
p3221
((lp3222
(lp3223
F81.831
aa(lp3224
F50.0
aa(lp3225
F0.0
aa(lp3226
F37.49256099999999
aF0.0
aF0.0
atp3227
sS'16206'
p3228
((lp3229
(lp3230
F-0.0
aa(lp3231
F77.975
aa(lp3232
F39.724
aa(lp3233
F0.0
aF95.90123849693252
aF99.92390013793059
atp3234
sS'16207'
p3235
((lp3236
(lp3237
F99.851
aa(lp3238
F0.167
aa(lp3239
F66.0
aa(lp3240
F0.7650520638297895
aF0.30555566666666667
aF117.33333333333333
atp3241
sS'16208'
p3242
((lp3243
(lp3244
F85.906
aa(lp3245
F42.093
aa(lp3246
F0.0
aa(lp3247
F65.11405237426906
aF95.6192536511629
aF0.0
atp3248
sS'16209'
p3249
((lp3250
(lp3251
F80.0
aa(lp3252
F90.0
aa(lp3253
F90.0
aa(lp3254
F0.0
aF0.0
aI0
atp3255
sS'16758'
p3256
((lp3257
(lp3258
F90.0
aa(lp3259
F50.0
aa(lp3260
F70.0
aa(lp3261
F0.0
aF0.0
aF0.0
atp3262
sS'16759'
p3263
((lp3264
(lp3265
F90.0
aa(lp3266
F0.0
aa(lp3267
F80.0
aa(lp3268
F0.0
aF0.0
aF0.0
atp3269
sS'16590'
p3270
((lp3271
(lp3272
F89.13
aa(lp3273
F43.333
aa(lp3274
F0.0
aa(lp3275
F7.939508695652188
aF88.88888899999999
aF0.0
atp3276
sS'16591'
p3277
((lp3278
(lp3279
F90.0
aa(lp3280
F90.0
aa(lp3281
F90.0
aa(lp3282
F0.0
aI0
aI0
atp3283
sS'16592'
p3284
((lp3285
(lp3286
F40.482
aa(lp3287
F2.7
aa(lp3288
F77.512
aa(lp3289
F99.04485412048201
aF35.70999999999997
aF113.32302204878067
atp3290
sS'16593'
p3291
((lp3292
(lp3293
F88.123
aa(lp3294
F2.317
aa(lp3295
F66.13
aa(lp3296
F29.76946746153845
aF58.362879243902434
aF73.2003782608696
atp3297
sS'16594'
p3298
((lp3299
(lp3300
F80.286
aa(lp3301
F41.383
aa(lp3302
F0.0
aa(lp3303
F97.05335849999989
aF98.08736985106418
aF0.0
atp3304
sS'16595'
p3305
((lp3306
(lp3307
F80.0
aa(lp3308
F90.0
aa(lp3309
F90.0
aa(lp3310
F0.0
aF0.0
aI0
atp3311
sS'16596'
p3312
((lp3313
(lp3314
F90.0
aa(lp3315
F80.0
aa(lp3316
F90.0
aa(lp3317
F0.0
aF0.0
aI0
atp3318
sS'16597'
p3319
((lp3320
(lp3321
F0.0
aa(lp3322
F90.0
aa(lp3323
F100.0
aa(lp3324
F0.0
aF0.0
aF0.0
atp3325
sS'16598'
p3326
((lp3327
(lp3328
F90.0
aa(lp3329
F80.0
aa(lp3330
F90.0
aa(lp3331
F0.0
aF0.0
aI0
atp3332
sS'16599'
p3333
((lp3334
(lp3335
F80.0
aa(lp3336
F90.0
aa(lp3337
F80.0
aa(lp3338
F0.0
aF0.0
aI0
atp3339
sS'16611'
p3340
((lp3341
(lp3342
F0.0
aa(lp3343
F41.515
aa(lp3344
F78.286
aa(lp3345
F0.0
aF97.70431590909091
aF82.77551028571426
atp3346
sS'16610'
p3347
((lp3348
(lp3349
F99.492
aa(lp3350
F1.818
aa(lp3351
F74.0
aa(lp3352
F4.826199593220334
aF33.057851272727255
aF44.0
atp3353
sS'16617'
p3354
((lp3355
(lp3356
F80.0
aa(lp3357
F90.0
aa(lp3358
F80.0
aa(lp3359
F0.0
aF0.0
aI0
atp3360
sS'16616'
p3361
((lp3362
(lp3363
F90.0
aa(lp3364
F80.0
aa(lp3365
F80.0
aa(lp3366
F0.0
aF0.0
aI0
atp3367
sS'16615'
p3368
((lp3369
(lp3370
F90.0
aa(lp3371
F80.0
aa(lp3372
F90.0
aa(lp3373
F0.0
aF0.0
aI0
atp3374
sS'16614'
p3375
((lp3376
(lp3377
F81.667
aa(lp3378
F0.0
aa(lp3379
F39.367
aa(lp3380
F93.05555566666641
aF0.0
aF99.5994231772152
atp3381
sS'16222'
p3382
((lp3383
(lp3384
F55.0
aa(lp3385
F88.958
aa(lp3386
F-0.0
aa(lp3387
F75.0
aF9.331597333333322
aF0.0
atp3388
sS'16181'
p3389
((lp3390
(lp3391
F90.0
aa(lp3392
F80.0
aa(lp3393
F90.0
aa(lp3394
F0.0
aF0.0
aI0
atp3395
sS'16114'
p3396
((lp3397
(lp3398
F90.0
aa(lp3399
F80.0
aa(lp3400
F90.0
aa(lp3401
F0.0
aF0.0
aI0
atp3402
sS'16115'
p3403
((lp3404
(lp3405
F42.453
aa(lp3406
F84.495
aa(lp3407
F-0.0
aa(lp3408
F93.98362409433965
aF79.79126353210998
aF0.0
atp3409
sS'16116'
p3410
((lp3411
(lp3412
F78.0
aa(lp3413
F44.667
aa(lp3414
F0.0
aa(lp3415
F96.0
aF78.22222233333332
aF0.0
atp3416
sS'16117'
p3417
((lp3418
(lp3419
F90.0
aa(lp3420
F80.0
aa(lp3421
F90.0
aa(lp3422
F0.0
aF0.0
aI0
atp3423
sS'16110'
p3424
((lp3425
(lp3426
F84.231
aa(lp3427
F43.333
aa(lp3428
F66.0
aa(lp3429
F35.946745615384614
aF66.66666677777776
aF24.0
atp3430
sS'16111'
p3431
((lp3432
(lp3433
F90.0
aa(lp3434
F80.0
aa(lp3435
F90.0
aa(lp3436
F0.0
aF0.0
aI0
atp3437
sS'16299'
p3438
((lp3439
(lp3440
F80.0
aa(lp3441
F90.0
aa(lp3442
F90.0
aa(lp3443
F0.0
aF0.0
aI0
atp3444
sS'16298'
p3445
((lp3446
(lp3447
F82.094
aa(lp3448
F-0.0
aa(lp3449
F40.381
aa(lp3450
F78.9087889411765
aF0.0
aF116.68027211111107
atp3451
sS'16297'
p3452
((lp3453
(lp3454
F30.0
aa(lp3455
F95.0
aa(lp3456
F77.0
aa(lp3457
F0.0
aF25.0
aF54.0
atp3458
sS'16296'
p3459
((lp3460
(lp3461
F90.0
aa(lp3462
F80.0
aa(lp3463
F90.0
aa(lp3464
F0.0
aF0.0
aI0
atp3465
sS'16295'
p3466
((lp3467
(lp3468
F84.39
aa(lp3469
F41.371
aa(lp3470
F2.923
aa(lp3471
F73.40868536585364
aF99.3763267142857
aF19.455621307692304
atp3472
sS'16294'
p3473
((lp3474
(lp3475
F61.429
aa(lp3476
F90.0
aa(lp3477
F21.429
aa(lp3478
F97.95918385714288
aF0.0
aF183.67346957142857
atp3479
sS'16293'
p3480
((lp3481
(lp3482
F80.0
aa(lp3483
F90.0
aa(lp3484
F80.0
aa(lp3485
I0
aF0.0
aF0.0
atp3486
sS'16292'
p3487
((lp3488
(lp3489
F-0.0
aa(lp3490
F81.089
aa(lp3491
F41.512
aa(lp3492
F0.0
aF98.7449820756596
aF97.71259998194316
atp3493
sS'16291'
p3494
((lp3495
(lp3496
F36.7
aa(lp3497
F72.241
aa(lp3498
F0.776
aa(lp3499
F114.01000000000008
aF102.03076454430379
aF8.760107034482747
atp3500
sS'16290'
p3501
((lp3502
(lp3503
F90.0
aa(lp3504
F80.0
aa(lp3505
F90.0
aa(lp3506
F0.0
aF0.0
aI0
atp3507
sS'16477'
p3508
((lp3509
(lp3510
F43.333
aa(lp3511
F0.0
aa(lp3512
F90.0
aa(lp3513
F88.88888899999999
aF0.0
aF0.0
atp3514
sS'16476'
p3515
((lp3516
(lp3517
F80.0
aa(lp3518
F90.0
aa(lp3519
F100.0
aa(lp3520
F0.0
aF0.0
aF0.0
atp3521
sS'16475'
p3522
((lp3523
(lp3524
F0.0
aa(lp3525
F43.774
aa(lp3526
F78.421
aa(lp3527
F0.0
aF85.76005713207556
aF97.50692521052633
atp3528
sS'16474'
p3529
((lp3530
(lp3531
F90.0
aa(lp3532
F80.0
aa(lp3533
F90.0
aa(lp3534
F0.0
aF0.0
aI0
atp3535
sS'16473'
p3536
((lp3537
(lp3538
F89.902
aa(lp3539
F7.987
aa(lp3540
F65.133
aa(lp3541
F1.7102428206388447
aF175.81801315584417
aF74.2044445555557
atp3542
sS'16472'
p3543
((lp3544
(lp3545
F90.0
aa(lp3546
F80.0
aa(lp3547
F90.0
aa(lp3548
F0.0
aF0.0
aI0
atp3549
sS'16471'
p3550
((lp3551
(lp3552
F90.0
aa(lp3553
F80.0
aa(lp3554
F90.0
aa(lp3555
F0.0
aF0.0
aI0
atp3556
sS'16470'
p3557
((lp3558
(lp3559
F90.0
aa(lp3560
F80.0
aa(lp3561
F80.0
aa(lp3562
F0.0
aF0.0
aI0
atp3563
sS'16479'
p3564
((lp3565
(lp3566
F70.0
aa(lp3567
F90.0
aa(lp3568
F47.143
aa(lp3569
F0.0
aF0.0
aF48.97959185714286
atp3570
sS'16478'
p3571
((lp3572
(lp3573
F94.55
aa(lp3574
F1.765
aa(lp3575
F74.308
aa(lp3576
F24.797738095238138
aF49.82698970588212
aF79.90532553846145
atp3577
sS'16275'
p3578
((lp3579
(lp3580
F-0.0
aa(lp3581
F87.598
aa(lp3582
F41.005
aa(lp3583
F0.0
aF40.76187416885543
aF98.98939007936504
atp3584
sS'16274'
p3585
((lp3586
(lp3587
F90.0
aa(lp3588
F90.0
aa(lp3589
F90.0
aa(lp3590
F0.0
aI0
aI0
atp3591
sS'16277'
p3592
((lp3593
(lp3594
F0.0
aa(lp3595
F100.0
aa(lp3596
F90.0
aa(lp3597
F0.0
aF0.0
aF0.0
atp3598
sS'16276'
p3599
((lp3600
(lp3601
F89.206
aa(lp3602
F0.0
aa(lp3603
F38.889
aa(lp3604
F13.655832825396821
aF0.0
aF98.76543211111112
atp3605
sS'16378'
p3606
((lp3607
(lp3608
F60.526
aa(lp3609
F89.778
aa(lp3610
F22.5
aa(lp3611
F99.72299178947371
aF2.172839555555557
aF168.75
atp3612
sS'16379'
p3613
((lp3614
(lp3615
F96.101
aa(lp3616
F0.829
aa(lp3617
F67.833
aa(lp3618
F22.307535975369454
aF20.851111967741982
aF113.25000011111113
atp3619
sS'16273'
p3620
((lp3621
(lp3622
F90.0
aa(lp3623
F70.0
aa(lp3624
F47.5
aa(lp3625
F0.0
aF0.0
aF43.75
atp3626
sS'16272'
p3627
((lp3628
(lp3629
F0.0
aa(lp3630
F100.0
aa(lp3631
F90.0
aa(lp3632
F0.0
aF0.0
aF0.0
atp3633
sS'16374'
p3634
((lp3635
(lp3636
F90.0
aa(lp3637
F80.0
aa(lp3638
F80.0
aa(lp3639
F0.0
aF0.0
aI0
atp3640
sS'16375'
p3641
((lp3642
(lp3643
F80.0
aa(lp3644
F90.0
aa(lp3645
F90.0
aa(lp3646
F0.0
aF0.0
aI0
atp3647
sS'16376'
p3648
((lp3649
(lp3650
F0.369
aa(lp3651
F94.515
aa(lp3652
F72.959
aa(lp3653
F8.54484185106377
aF25.58310378787879
aF111.59017079591837
atp3654
sS'16377'
p3655
((lp3656
(lp3657
F88.75
aa(lp3658
F-0.0
aa(lp3659
F65.0
aa(lp3660
F10.9375
aF0.0
aF75.0
atp3661
sS'16370'
p3662
((lp3663
(lp3664
F90.0
aa(lp3665
F80.0
aa(lp3666
F90.0
aa(lp3667
F0.0
aF0.0
aI0
atp3668
sS'16371'
p3669
((lp3670
(lp3671
F90.0
aa(lp3672
F90.0
aa(lp3673
F90.0
aa(lp3674
F0.0
aI0
aI0
atp3675
sS'16372'
p3676
((lp3677
(lp3678
F87.879
aa(lp3679
F0.0
aa(lp3680
F36.667
aa(lp3681
F28.83379251515151
aF0.0
aF88.88888899999999
atp3682
sS'16373'
p3683
((lp3684
(lp3685
F38.889
aa(lp3686
F85.263
aa(lp3687
F0.0
aa(lp3688
F98.76543211111112
aF45.98337952631581
aF0.0
atp3689
sS'16188'
p3690
((lp3691
(lp3692
F90.0
aa(lp3693
F80.0
aa(lp3694
F90.0
aa(lp3695
F0.0
aF0.0
aI0
atp3696
sS'16688'
p3697
((lp3698
(lp3699
F86.897
aa(lp3700
F0.0
aa(lp3701
F30.0
aa(lp3702
F21.403091758620697
aF0.0
aF0.0
atp3703
sS'16689'
p3704
((lp3705
(lp3706
F90.0
aa(lp3707
F80.0
aa(lp3708
F90.0
aa(lp3709
F0.0
aF0.0
aI0
atp3710
sS'16684'
p3711
((lp3712
(lp3713
F90.0
aa(lp3714
F0.0
aa(lp3715
F80.0
aa(lp3716
F0.0
aF0.0
aF0.0
atp3717
sS'16685'
p3718
((lp3719
(lp3720
F80.0
aa(lp3721
F90.0
aa(lp3722
F80.0
aa(lp3723
F0.0
aF0.0
aI0
atp3724
sS'16686'
p3725
((lp3726
(lp3727
F90.0
aa(lp3728
F80.0
aa(lp3729
F90.0
aa(lp3730
F0.0
aF0.0
aI0
atp3731
sS'16687'
p3732
((lp3733
(lp3734
F90.0
aa(lp3735
F0.0
aa(lp3736
F30.0
aa(lp3737
F0.0
aF0.0
aF0.0
atp3738
sS'16680'
p3739
((lp3740
(lp3741
F0.0
aa(lp3742
F87.037
aa(lp3743
F54.0
aa(lp3744
F0.0
aF28.257887518518526
aF51.6
atp3745
sS'16681'
p3746
((lp3747
(lp3748
F90.0
aa(lp3749
F80.0
aa(lp3750
F90.0
aa(lp3751
F0.0
aF0.0
aI0
atp3752
sS'16682'
p3753
((lp3754
(lp3755
F90.0
aa(lp3756
F80.0
aa(lp3757
F90.0
aa(lp3758
F0.0
aF0.0
aI0
atp3759
sS'16683'
p3760
((lp3761
(lp3762
F87.143
aa(lp3763
F-0.0
aa(lp3764
F38.889
aa(lp3765
F48.97959185714286
aF0.0
aF98.76543211111112
atp3766
sS'16767'
p3767
((lp3768
(lp3769
F89.651
aa(lp3770
F0.0
aa(lp3771
F67.241
aa(lp3772
F3.3666847209302344
aF0.0
aF47.5624258275862
atp3773
sS'16224'
p3774
((lp3775
(lp3776
F90.0
aa(lp3777
F70.0
aa(lp3778
F90.0
aa(lp3779
F0.0
aF0.0
aI0
atp3780
sS'16225'
p3781
((lp3782
(lp3783
F90.0
aa(lp3784
F80.0
aa(lp3785
F90.0
aa(lp3786
F0.0
aF0.0
aI0
atp3787
sS'16199'
p3788
((lp3789
(lp3790
F42.659
aa(lp3791
F0.0
aa(lp3792
F75.382
aa(lp3793
F92.93115401587315
aF0.0
aF75.99935911450383
atp3794
sS'16608'
p3795
((lp3796
(lp3797
F86.176
aa(lp3798
F26.557
aa(lp3799
F50.0
aa(lp3800
F53.02768188235291
aF91.42703588524587
aF0.0
atp3801
sS'16137'
p3802
((lp3803
(lp3804
F90.0
aa(lp3805
F80.0
aa(lp3806
F90.0
aa(lp3807
F0.0
aF0.0
aI0
atp3808
sS'16609'
p3809
((lp3810
(lp3811
F1.114
aa(lp3812
F77.654
aa(lp3813
F49.556
aa(lp3814
F21.44163236363636
aF71.9801775384616
aF65.49135822222225
atp3815
sS'16893'
p3816
((lp3817
(lp3818
F0.795
aa(lp3819
F100.0
aa(lp3820
F86.667
aa(lp3821
F9.02634318181818
aF0.0
aF22.222222333333335
atp3822
sS'16873'
p3823
((lp3824
(lp3825
F90.0
aa(lp3826
F50.0
aa(lp3827
F90.0
aa(lp3828
F0.0
aF0.0
aI0
atp3829
sS'16872'
p3830
((lp3831
(lp3832
F90.0
aa(lp3833
F80.0
aa(lp3834
F90.0
aa(lp3835
F0.0
aF0.0
aI0
atp3836
sS'16978'
p3837
((lp3838
(lp3839
F90.0
aa(lp3840
F80.0
aa(lp3841
F90.0
aa(lp3842
I0
aF0.0
aF0.0
atp3843
sS'16979'
p3844
((lp3845
(lp3846
F90.0
aa(lp3847
F30.0
aa(lp3848
F70.0
aa(lp3849
F0.0
aF0.0
aF0.0
atp3850
sS'16877'
p3851
((lp3852
(lp3853
F-0.0
aa(lp3854
F87.143
aa(lp3855
F46.0
aa(lp3856
F0.0
aF48.979591857142815
aF64.0
atp3857
sS'16876'
p3858
((lp3859
(lp3860
F71.25
aa(lp3861
F90.0
aa(lp3862
F45.556
aa(lp3863
F10.9375
aF0.0
aF69.13580266666666
atp3864
sS'16875'
p3865
((lp3866
(lp3867
F76.842
aa(lp3868
F42.5
aa(lp3869
F92.0
aa(lp3870
F21.606648210526306
aF68.75
aF16.0
atp3871
sS'16874'
p3872
((lp3873
(lp3874
F81.717
aa(lp3875
F0.0
aa(lp3876
F38.405
aa(lp3877
F97.05132132323229
aF0.0
aF97.4549199416346
atp3878
sS'16972'
p3879
((lp3880
(lp3881
F90.0
aa(lp3882
F80.0
aa(lp3883
F90.0
aa(lp3884
F0.0
aF0.0
aI0
atp3885
sS'16973'
p3886
((lp3887
(lp3888
F93.333
aa(lp3889
F13.333
aa(lp3890
F70.0
aa(lp3891
F22.222222333333324
aF22.22222233333333
aF0.0
atp3892
sS'16970'
p3893
((lp3894
(lp3895
F58.544
aa(lp3896
F88.846
aa(lp3897
F26.571
aa(lp3898
F97.87915930097093
aF10.207100615384626
aF91.10204100000003
atp3899
sS'16971'
p3900
((lp3901
(lp3902
F90.0
aa(lp3903
F80.0
aa(lp3904
F90.0
aa(lp3905
F0.0
aF0.0
aI0
atp3906
sS'16976'
p3907
((lp3908
(lp3909
F70.0
aa(lp3910
F50.0
aa(lp3911
F70.0
aa(lp3912
F0.0
aF0.0
aI0
atp3913
sS'16977'
p3914
((lp3915
(lp3916
F0.0
aa(lp3917
F90.0
aa(lp3918
F0.0
aa(lp3919
F0.0
aF0.0
aI0
atp3920
sS'16974'
p3921
((lp3922
(lp3923
F90.0
aa(lp3924
F15.0
aa(lp3925
F80.0
aa(lp3926
F0.0
aF225.0
aF0.0
atp3927
sS'16975'
p3928
((lp3929
(lp3930
F90.0
aa(lp3931
F80.0
aa(lp3932
F90.0
aa(lp3933
F0.0
aF0.0
aI0
atp3934
sS'16892'
p3935
((lp3936
(lp3937
F83.571
aa(lp3938
F45.0
aa(lp3939
F-0.0
aa(lp3940
F51.530612428571416
aF75.0
aF0.0
atp3941
sS'16223'
p3942
((lp3943
(lp3944
F90.0
aa(lp3945
F0.0
aa(lp3946
F90.0
aa(lp3947
I0
aF0.0
aF0.0
atp3948
sS'16441'
p3949
((lp3950
(lp3951
F90.0
aa(lp3952
F80.0
aa(lp3953
F90.0
aa(lp3954
F0.0
aF0.0
aI0
atp3955
sS'16554'
p3956
((lp3957
(lp3958
F89.677
aa(lp3959
F18.0
aa(lp3960
F64.286
aa(lp3961
F3.121748354838707
aF216.0
aF81.63265314285715
atp3962
sS'16555'
p3963
((lp3964
(lp3965
F90.0
aa(lp3966
F50.0
aa(lp3967
F80.0
aa(lp3968
F0.0
aF0.0
aF0.0
atp3969
sS'16837'
p3970
((lp3971
(lp3972
F84.615
aa(lp3973
F0.0
aa(lp3974
F40.0
aa(lp3975
F71.0059173076923
aF0.0
aF100.0
atp3976
sS'16565'
p3977
((lp3978
(lp3979
F80.0
aa(lp3980
F90.0
aa(lp3981
F90.0
aa(lp3982
F0.0
aF0.0
aI0
atp3983
sS'16895'
p3984
((lp3985
(lp3986
F0.0
aa(lp3987
F90.0
aa(lp3988
F100.0
aa(lp3989
F0.0
aF0.0
aF0.0
atp3990
sS'16564'
p3991
((lp3992
(lp3993
F-0.0
aa(lp3994
F86.923
aa(lp3995
F40.0
aa(lp3996
F0.0
aF52.07100592307692
aF100.0
atp3997
sS'16129'
p3998
((lp3999
(lp4000
F75.714
aa(lp4001
F90.0
aa(lp4002
F50.0
aa(lp4003
F24.489796000000002
aF0.0
aF0.0
atp4004
sS'16128'
p4005
((lp4006
(lp4007
F10.0
aa(lp4008
F90.0
aa(lp4009
F90.0
aa(lp4010
F0.0
aF0.0
aI0
atp4011
sS'16552'
p4012
((lp4013
(lp4014
F90.0
aa(lp4015
F80.0
aa(lp4016
F90.0
aa(lp4017
F0.0
aF0.0
aI0
atp4018
sS'16658'
p4019
((lp4020
(lp4021
F70.0
aa(lp4022
F90.0
aa(lp4023
F39.0
aa(lp4024
F0.0
aF0.0
aF249.0
atp4025
sS'16428'
p4026
((lp4027
(lp4028
F-0.0
aa(lp4029
F89.464
aa(lp4030
F35.714
aa(lp4031
F0.0
aF8.641581714285701
aF81.63265314285715
atp4032
sS'16125'
p4033
((lp4034
(lp4035
F90.0
aa(lp4036
F31.143
aa(lp4037
F70.0
aa(lp4038
F0.0
aF64.40816328571424
aF0.0
atp4039
sS'16894'
p4040
((lp4041
(lp4042
F89.454
aa(lp4043
F8.333
aa(lp4044
F60.238
aa(lp4045
F49.27855771779136
aF102.7777778888889
aF78.51473923809523
atp4046
sS'16124'
p4047
((lp4048
(lp4049
F89.042
aa(lp4050
F0.629
aa(lp4051
F63.274
aa(lp4052
F42.82696770370363
aF16.1425046363637
aF129.38931409523806
atp4053
sS'16562'
p4054
((lp4055
(lp4056
F0.0
aa(lp4057
F88.824
aa(lp4058
F40.0
aa(lp4059
F0.0
aF15.086505411764705
aF100.0
atp4060
sS'16127'
p4061
((lp4062
(lp4063
F90.0
aa(lp4064
F80.0
aa(lp4065
F80.0
aa(lp4066
F0.0
aF0.0
aI0
atp4067
sS'16195'
p4068
((lp4069
(lp4070
F55.714
aa(lp4071
F90.0
aa(lp4072
F30.0
aa(lp4073
F81.63265314285715
aF0.0
aF0.0
atp4074
sS'16846'
p4075
((lp4076
(lp4077
F89.859
aa(lp4078
F0.0
aa(lp4079
F47.143
aa(lp4080
F1.3886133943661945
aF0.0
aF48.97959185714285
atp4081
sS'16556'
p4082
((lp4083
(lp4084
F78.889
aa(lp4085
F0.0
aa(lp4086
F50.0
aa(lp4087
F98.7654321111111
aF0.0
aF0.0
atp4088
sS'16557'
p4089
((lp4090
(lp4091
F90.0
aa(lp4092
F80.0
aa(lp4093
F90.0
aa(lp4094
F0.0
aF0.0
aI0
atp4095
sS'16550'
p4096
((lp4097
(lp4098
F90.0
aa(lp4099
F80.0
aa(lp4100
F90.0
aa(lp4101
F0.0
aF0.0
aI0
atp4102
sS'16551'
p4103
((lp4104
(lp4105
F89.926
aa(lp4106
F66.48
aa(lp4107
F13.333
aa(lp4108
F1.2290809382716252
aF57.67724210526339
aF222.2222223333333
atp4109
sS'16659'
p4110
((lp4111
(lp4112
F-0.0
aa(lp4113
F86.0
aa(lp4114
F30.0
aa(lp4115
F0.0
aF44.0
aF0.0
atp4116
sS'16968'
p4117
((lp4118
(lp4119
F88.696
aa(lp4120
F35.0
aa(lp4121
F0.0
aa(lp4122
F15.689981217391315
aF75.0
aF0.0
atp4123
sS'16657'
p4124
((lp4125
(lp4126
F90.0
aa(lp4127
F90.0
aa(lp4128
F90.0
aa(lp4129
F0.0
aI0
aI0
atp4130
sS'16656'
p4131
((lp4132
(lp4133
F90.394
aa(lp4134
F64.31
aa(lp4135
F6.818
aa(lp4136
F4.35151769014088
aF81.42092758620707
aF158.05785127272722
atp4137
sS'16655'
p4138
((lp4139
(lp4140
F53.127
aa(lp4141
F98.194
aa(lp4142
F10.1
aa(lp4143
F123.67932696954263
aF28.107109349243977
aF123.88161961367003
atp4144
sS'16126'
p4145
((lp4146
(lp4147
F30.0
aa(lp4148
F84.444
aa(lp4149
F0.0
aa(lp4150
F0.0
aF58.02469155555556
aF0.0
atp4151
sS'16558'
p4152
((lp4153
(lp4154
F61.722
aa(lp4155
F13.297
aa(lp4156
F91.805
aa(lp4157
F97.52068056128793
aF199.60383429833146
aF31.09086931137775
atp4158
sS'16652'
p4159
((lp4160
(lp4161
F41.154
aa(lp4162
F-0.0
aa(lp4163
F80.185
aa(lp4164
F98.66863907692306
aF0.0
aF90.70644722222227
atp4165
sS'16123'
p4166
((lp4167
(lp4168
F89.167
aa(lp4169
F4.615
aa(lp4170
F61.2
aa(lp4171
F7.638889000000005
aF117.15976346153845
aF98.56000000000003
atp4172
sS'16650'
p4173
((lp4174
(lp4175
F38.99
aa(lp4176
F74.516
aa(lp4177
F0.0
aa(lp4178
F98.97969595959619
aF47.346514064516114
aF0.0
atp4179
sS'16897'
p4180
((lp4181
(lp4182
F83.864
aa(lp4183
F0.0
aa(lp4184
F43.846
aa(lp4185
F82.79958690909085
aF0.0
aF85.20710061538463
atp4186
sS'16531'
p4187
((lp4188
(lp4189
F78.889
aa(lp4190
F30.0
aa(lp4191
F0.0
aa(lp4192
F98.7654321111111
aF0.0
aF0.0
atp4193
sS'16088'
p4194
((lp4195
(lp4196
F57.273
aa(lp4197
F90.071
aa(lp4198
F-0.0
aa(lp4199
F165.2892562727273
aF4.959509085106389
aF0.0
atp4200
sS'16089'
p4201
((lp4202
(lp4203
F65.0
aa(lp4204
F88.095
aa(lp4205
F0.0
aa(lp4206
F75.0
aF15.419501190476193
aF0.0
atp4207
sS'16651'
p4208
((lp4209
(lp4210
F42.973
aa(lp4211
F90.0
aa(lp4212
F66.414
aa(lp4213
F91.16143170270273
aF0.0
aF21.759809793103454
atp4214
sS'16082'
p4215
((lp4216
(lp4217
F80.0
aa(lp4218
F80.0
aa(lp4219
F80.0
aa(lp4220
F0.0
aI0
aI0
atp4221
sS'16083'
p4222
((lp4223
(lp4224
F0.0
aa(lp4225
F81.396
aa(lp4226
F35.907
aa(lp4227
F0.0
aF96.69872590990954
aF83.24518786010381
atp4228
sS'16080'
p4229
((lp4230
(lp4231
F82.857
aa(lp4232
F50.0
aa(lp4233
F21.429
aa(lp4234
F87.07482995238095
aF0.0
aF183.67346957142857
atp4235
sS'16122'
p4236
((lp4237
(lp4238
F90.0
aa(lp4239
F90.0
aa(lp4240
F90.0
aa(lp4241
F0.0
aI0
aI0
atp4242
sS'16086'
p4243
((lp4244
(lp4245
F0.0
aa(lp4246
F87.5
aa(lp4247
F40.0
aa(lp4248
F0.0
aF35.416666666666664
aF100.0
atp4249
sS'16087'
p4250
((lp4251
(lp4252
F80.493
aa(lp4253
F41.584
aa(lp4254
F0.0
aa(lp4255
F93.45543256164407
aF97.49186142986393
aF0.0
atp4256
sS'16196'
p4257
((lp4258
(lp4259
F88.762
aa(lp4260
F6.4
aa(lp4261
F59.333
aa(lp4262
F34.27664399999999
aF96.04000000000003
aF88.888889
atp4263
sS'16085'
p4264
((lp4265
(lp4266
F90.0
aa(lp4267
F50.0
aa(lp4268
F90.0
aa(lp4269
F0.0
aF0.0
aI0
atp4270
sS'16950'
p4271
((lp4272
(lp4273
F90.0
aa(lp4274
F80.0
aa(lp4275
F90.0
aa(lp4276
F0.0
aF0.0
aI0
atp4277
sS'16951'
p4278
((lp4279
(lp4280
F80.0
aa(lp4281
F90.0
aa(lp4282
F80.0
aa(lp4283
F0.0
aF0.0
aI0
atp4284
sS'16952'
p4285
((lp4286
(lp4287
F90.0
aa(lp4288
F80.0
aa(lp4289
F90.0
aa(lp4290
F0.0
aF0.0
aI0
atp4291
sS'16896'
p4292
((lp4293
(lp4294
F32.132
aa(lp4295
F-0.0
aa(lp4296
F80.304
aa(lp4297
F38.08867385439864
aF0.0
aF97.73345947826101
atp4298
sS'16011'
p4299
((lp4300
(lp4301
F0.0
aa(lp4302
F90.0
aa(lp4303
F0.0
aa(lp4304
F0.0
aF0.0
aI0
atp4305
sS'16010'
p4306
((lp4307
(lp4308
F66.364
aa(lp4309
F24.0
aa(lp4310
F90.0
aa(lp4311
F59.50413236363632
aF144.0
aF0.0
atp4312
sS'16013'
p4313
((lp4314
(lp4315
F90.0
aa(lp4316
F90.0
aa(lp4317
F90.0
aa(lp4318
F0.0
aI0
aI0
atp4319
sS'16012'
p4320
((lp4321
(lp4322
F89.333
aa(lp4323
F30.0
aa(lp4324
F50.0
aa(lp4325
F6.222222333333334
aF0.0
aF0.0
atp4326
sS'16015'
p4327
((lp4328
(lp4329
F90.0
aa(lp4330
F80.0
aa(lp4331
F90.0
aa(lp4332
F0.0
aF0.0
aI0
atp4333
sS'16014'
p4334
((lp4335
(lp4336
F80.0
aa(lp4337
F0.0
aa(lp4338
F92.0
aa(lp4339
F0.0
aF0.0
aF16.0
atp4340
sS'16017'
p4341
((lp4342
(lp4343
F100.0
aa(lp4344
F0.0
aa(lp4345
F10.0
aa(lp4346
F0.0
aF0.0
aF0.0
atp4347
sS'16016'
p4348
((lp4349
(lp4350
F90.0
aa(lp4351
F80.0
aa(lp4352
F90.0
aa(lp4353
F0.0
aF0.0
aI0
atp4354
sS'16019'
p4355
((lp4356
(lp4357
F30.838
aa(lp4358
F97.907
aa(lp4359
F58.281
aa(lp4360
F115.95912635294121
aF30.2824841648351
aF80.29188234831467
atp4361
sS'16018'
p4362
((lp4363
(lp4364
F100.0
aa(lp4365
F89.955
aa(lp4366
F39.714
aa(lp4367
F0.0
aF0.7083794668587905
aF389.34693885714285
atp4368
sS'16152'
p4369
((lp4370
(lp4371
F50.0
aa(lp4372
F20.959
aa(lp4373
F75.294
aa(lp4374
F0.0
aF189.49146182191748
aF64.91349482352942
atp4375
sS'16153'
p4376
((lp4377
(lp4378
F90.0
aa(lp4379
F80.0
aa(lp4380
F90.0
aa(lp4381
F0.0
aF0.0
aI0
atp4382
sS'16154'
p4383
((lp4384
(lp4385
F62.131
aa(lp4386
F89.81
aa(lp4387
F14.348
aa(lp4388
F95.45821018032794
aF1.859796682464452
aF224.57466921739132
atp4389
sS'16155'
p4390
((lp4391
(lp4392
F90.0
aa(lp4393
F80.0
aa(lp4394
F90.0
aa(lp4395
F0.0
aF0.0
aI0
atp4396
sS'16156'
p4397
((lp4398
(lp4399
F90.0
aa(lp4400
F100.0
aa(lp4401
F80.0
aa(lp4402
F0.0
aF0.0
aF0.0
atp4403
sS'16157'
p4404
((lp4405
(lp4406
F58.571
aa(lp4407
F90.0
aa(lp4408
F0.0
aa(lp4409
F97.95918385714288
aF0.0
aF0.0
atp4410
sS'16882'
p4411
((lp4412
(lp4413
F90.0
aa(lp4414
F80.0
aa(lp4415
F90.0
aa(lp4416
F0.0
aF0.0
aI0
atp4417
sS'16883'
p4418
((lp4419
(lp4420
F0.0
aa(lp4421
F86.333
aa(lp4422
F36.154
aa(lp4423
F0.0
aF53.222222333333285
aF85.2071006153846
atp4424
sS'16880'
p4425
((lp4426
(lp4427
F90.0
aa(lp4428
F80.0
aa(lp4429
F80.0
aa(lp4430
F0.0
aF0.0
aI0
atp4431
sS'16333'
p4432
((lp4433
(lp4434
F90.0
aa(lp4435
F90.0
aa(lp4436
F90.0
aa(lp4437
F0.0
aI0
aI0
atp4438
sS'16886'
p4439
((lp4440
(lp4441
F90.0
aa(lp4442
F80.0
aa(lp4443
F90.0
aa(lp4444
F0.0
aF0.0
aI0
atp4445
sS'16887'
p4446
((lp4447
(lp4448
F69.533
aa(lp4449
F94.059
aa(lp4450
F11.333
aa(lp4451
F108.98222233333334
aF24.11528298019802
aF144.888889
atp4452
sS'16336'
p4453
((lp4454
(lp4455
F90.0
aa(lp4456
F80.0
aa(lp4457
F80.0
aa(lp4458
F0.0
aF0.0
aI0
atp4459
sS'16337'
p4460
((lp4461
(lp4462
F88.32
aa(lp4463
F0.0
aa(lp4464
F42.308
aa(lp4465
F30.777599999999993
aF0.0
aF94.67455630769227
atp4466
sS'16338'
p4467
((lp4468
(lp4469
F90.0
aa(lp4470
F80.0
aa(lp4471
F90.0
aa(lp4472
F0.0
aF0.0
aI0
atp4473
sS'16339'
p4474
((lp4475
(lp4476
F71.0
aa(lp4477
F90.625
aa(lp4478
F80.0
aa(lp4479
F1.0
aF5.859375
aF0.0
atp4480
sS'16888'
p4481
((lp4482
(lp4483
F63.333
aa(lp4484
F2.727
aa(lp4485
F89.907
aa(lp4486
F88.88888900000006
aF74.38016536363631
aF0.9258452616822462
atp4487
sS'16889'
p4488
((lp4489
(lp4490
F90.0
aa(lp4491
F0.0
aa(lp4492
F77.917
aa(lp4493
F0.0
aF0.0
aF16.493055666666667
atp4494
sS'16899'
p4495
((lp4496
(lp4497
F88.333
aa(lp4498
F50.0
aa(lp4499
F0.0
aa(lp4500
F13.88888899999999
aF0.0
aF0.0
atp4501
sS'16148'
p4502
((lp4503
(lp4504
F70.0
aa(lp4505
F46.0
aa(lp4506
F90.0
aa(lp4507
F0.0
aF64.0
aF0.0
atp4508
sS'16239'
p4509
((lp4510
(lp4511
F69.0
aa(lp4512
F60.0
aa(lp4513
F75.0
aa(lp4514
F0.0
aF0.0
aF0.0
atp4515
sS'16238'
p4516
((lp4517
(lp4518
F90.0
aa(lp4519
F6.0
aa(lp4520
F65.0
aa(lp4521
F0.0
aF144.0
aF75.0
atp4522
sS'16729'
p4523
((lp4524
(lp4525
F98.811
aa(lp4526
F5.256
aa(lp4527
F65.217
aa(lp4528
F10.474839881118873
aF73.65220266666645
aF185.8223063913043
atp4529
sS'16728'
p4530
((lp4531
(lp4532
F50.0
aa(lp4533
F75.441
aa(lp4534
F25.385
aa(lp4535
F0.0
aF79.21199057854396
aF117.15976346153818
atp4536
sS'16967'
p4537
((lp4538
(lp4539
F90.0
aa(lp4540
F50.0
aa(lp4541
F77.143
aa(lp4542
F0.0
aF0.0
aF20.408163285714288
atp4543
sS'16723'
p4544
((lp4545
(lp4546
F80.0
aa(lp4547
F90.0
aa(lp4548
F90.0
aa(lp4549
F0.0
aF0.0
aI0
atp4550
sS'16230'
p4551
((lp4552
(lp4553
F90.0
aa(lp4554
F80.0
aa(lp4555
F90.0
aa(lp4556
F0.0
aF0.0
aI0
atp4557
sS'16233'
p4558
((lp4559
(lp4560
F80.0
aa(lp4561
F90.0
aa(lp4562
F90.0
aa(lp4563
F0.0
aF0.0
aI0
atp4564
sS'16966'
p4565
((lp4566
(lp4567
F0.0
aa(lp4568
F81.667
aa(lp4569
F38.0
aa(lp4570
F0.0
aF97.22222233333336
aF96.0
atp4571
sS'16235'
p4572
((lp4573
(lp4574
F90.0
aa(lp4575
F80.0
aa(lp4576
F90.0
aa(lp4577
F0.0
aF0.0
aI0
atp4578
sS'16234'
p4579
((lp4580
(lp4581
F88.478
aa(lp4582
F0.0
aa(lp4583
F40.0
aa(lp4584
F17.24952747826089
aF0.0
aF100.0
atp4585
sS'16237'
p4586
((lp4587
(lp4588
F100.0
aa(lp4589
F0.0
aa(lp4590
F100.0
aa(lp4591
F0.0
aF0.0
aI0
atp4592
sS'16236'
p4593
((lp4594
(lp4595
F80.0
aa(lp4596
F90.0
aa(lp4597
F90.0
aa(lp4598
F0.0
aF0.0
aI0
atp4599
sS'16161'
p4600
((lp4601
(lp4602
F90.0
aa(lp4603
F80.0
aa(lp4604
F90.0
aa(lp4605
F0.0
aF0.0
aI0
atp4606
sS'16081'
p4607
((lp4608
(lp4609
F75.85
aa(lp4610
F5.415
aa(lp4611
F91.4
aa(lp4612
F70.05244652406418
aF91.7549079268292
aF22.667118644067823
atp4613
sS'16160'
p4614
((lp4615
(lp4616
F86.964
aa(lp4617
F20.0
aa(lp4618
F66.0
aa(lp4619
F21.14158171428573
aF200.0
aF64.0
atp4620
sS'16898'
p4621
((lp4622
(lp4623
F85.0
aa(lp4624
F50.0
aa(lp4625
F100.0
aa(lp4626
F25.0
aF0.0
aF0.0
atp4627
sS'16507'
p4628
((lp4629
(lp4630
F92.188
aa(lp4631
F40.0
aa(lp4632
F79.091
aa(lp4633
F17.089844000000003
aF100.0
aF8.264462818181817
atp4634
sS'16084'
p4635
((lp4636
(lp4637
F90.0
aa(lp4638
F80.0
aa(lp4639
F90.0
aa(lp4640
F0.0
aF0.0
aI0
atp4641
sS'16506'
p4642
((lp4643
(lp4644
F39.71
aa(lp4645
F0.0
aa(lp4646
F78.807
aa(lp4647
F99.91598405797099
aF0.0
aF98.57756092660556
atp4648
sS'16505'
p4649
((lp4650
(lp4651
F90.0
aa(lp4652
F80.0
aa(lp4653
F80.0
aa(lp4654
F0.0
aF0.0
aI0
atp4655
sS'16819'
p4656
((lp4657
(lp4658
F90.0
aa(lp4659
F80.0
aa(lp4660
F70.0
aa(lp4661
F0.0
aF0.0
aF0.0
atp4662
sS'16504'
p4663
((lp4664
(lp4665
F84.217
aa(lp4666
F1.222
aa(lp4667
F40.941
aa(lp4668
F48.2421251445783
aF11.950617333333334
aF102.64359864705882
atp4669
sS'16167'
p4670
((lp4671
(lp4672
F90.0
aa(lp4673
F80.0
aa(lp4674
F80.0
aa(lp4675
F0.0
aF0.0
aI0
atp4676
sS'16818'
p4677
((lp4678
(lp4679
F89.853
aa(lp4680
F70.0
aa(lp4681
F50.0
aa(lp4682
F1.448961941176467
aF0.0
aF0.0
atp4683
sS'16503'
p4684
((lp4685
(lp4686
F0.057
aa(lp4687
F75.738
aa(lp4688
F42.923
aa(lp4689
F0.5681632857142832
aF78.55415219672133
aF91.45562130769255
atp4690
sS'16502'
p4691
((lp4692
(lp4693
F-0.0
aa(lp4694
F90.0
aa(lp4695
F70.0
aa(lp4696
F0.0
aF0.0
aF0.0
atp4697
sS'16345'
p4698
((lp4699
(lp4700
F90.0
aa(lp4701
F80.0
aa(lp4702
F90.0
aa(lp4703
F0.0
aF0.0
aI0
atp4704
sS'16836'
p4705
((lp4706
(lp4707
F96.753
aa(lp4708
F0.0
aa(lp4709
F67.5
aa(lp4710
F21.92612588311687
aF0.0
aF43.75
atp4711
sS'16347'
p4712
((lp4713
(lp4714
F90.0
aa(lp4715
F90.0
aa(lp4716
F90.0
aa(lp4717
F0.0
aI0
aI0
atp4718
sS'16346'
p4719
((lp4720
(lp4721
F30.0
aa(lp4722
F90.0
aa(lp4723
F77.5
aa(lp4724
F0.0
aF0.0
aF18.75
atp4725
sS'16833'
p4726
((lp4727
(lp4728
F80.0
aa(lp4729
F90.0
aa(lp4730
F80.0
aa(lp4731
F0.0
aF0.0
aI0
atp4732
sS'16501'
p4733
((lp4734
(lp4735
F90.0
aa(lp4736
F80.0
aa(lp4737
F90.0
aa(lp4738
F0.0
aF0.0
aI0
atp4739
sS'16831'
p4740
((lp4741
(lp4742
F89.832
aa(lp4743
F0.0
aa(lp4744
F47.5
aa(lp4745
F3.333097949579851
aF0.0
aF43.75
atp4746
sS'16342'
p4747
((lp4748
(lp4749
F90.0
aa(lp4750
F6.0
aa(lp4751
F78.889
aa(lp4752
F0.0
aF144.0
aF9.876543222222221
atp4753
sS'16424'
p4754
((lp4755
(lp4756
F83.676
aa(lp4757
F40.549
aa(lp4758
F0.0
aa(lp4759
F86.48356423529401
aF99.69810429670335
aF0.0
atp4760
sS'16425'
p4761
((lp4762
(lp4763
F90.0
aa(lp4764
F80.0
aa(lp4765
F90.0
aa(lp4766
F0.0
aF0.0
aI0
atp4767
sS'16426'
p4768
((lp4769
(lp4770
F90.0
aa(lp4771
F3.75
aa(lp4772
F66.0
aa(lp4773
F0.0
aF98.4375
aF64.0
atp4774
sS'16500'
p4775
((lp4776
(lp4777
F86.0
aa(lp4778
F70.0
aa(lp4779
F46.176
aa(lp4780
F24.0
aF0.0
aF105.96885835294121
atp4781
sS'16420'
p4782
((lp4783
(lp4784
F62.857
aa(lp4785
F18.75
aa(lp4786
F88.837
aa(lp4787
F91.83673471428574
aF210.9375
aF10.2758248139535
atp4788
sS'16421'
p4789
((lp4790
(lp4791
F85.705
aa(lp4792
F9.516
aa(lp4793
F63.153
aa(lp4794
F39.04086841637008
aF188.47554632258067
aF75.34541564451837
atp4795
sS'16839'
p4796
((lp4797
(lp4798
F90.0
aa(lp4799
F90.0
aa(lp4800
F90.0
aa(lp4801
F0.0
aI0
aI0
atp4802
sS'16838'
p4803
((lp4804
(lp4805
F85.693
aa(lp4806
F-0.0
aa(lp4807
F37.387
aa(lp4808
F67.58484754014587
aF0.0
aF93.1742554864864
atp4809
sS'16459'
p4810
((lp4811
(lp4812
F60.24
aa(lp4813
F18.358
aa(lp4814
F89.745
aa(lp4815
F99.94240000000002
aF213.72243265671625
aF2.4806613636363575
atp4816
sS'16830'
p4817
((lp4818
(lp4819
F80.0
aa(lp4820
F90.0
aa(lp4821
F100.0
aa(lp4822
F0.0
aF0.0
aF0.0
atp4823
sS'16046'
p4824
((lp4825
(lp4826
F96.699
aa(lp4827
F0.619
aa(lp4828
F72.214
aa(lp4829
F23.993613048192742
aF12.890594628318567
aF94.09693885714287
atp4830
sS'16458'
p4831
((lp4832
(lp4833
F90.0
aa(lp4834
F80.0
aa(lp4835
F90.0
aa(lp4836
F0.0
aF0.0
aI0
atp4837
sS'16989'
p4838
((lp4839
(lp4840
F90.0
aa(lp4841
F80.0
aa(lp4842
F90.0
aa(lp4843
F0.0
aF0.0
aI0
atp4844
sS'16118'
p4845
((lp4846
(lp4847
F95.143
aa(lp4848
F0.0
aa(lp4849
F80.0
aa(lp4850
F20.693877571428573
aF0.0
aF2.6666666666666665
atp4851
sS'16823'
p4852
((lp4853
(lp4854
F100.0
aa(lp4855
F90.0
aa(lp4856
F90.0
aa(lp4857
F0.0
aF0.0
aI0
atp4858
sS'16352'
p4859
((lp4860
(lp4861
F0.0
aa(lp4862
F50.0
aa(lp4863
F30.0
aa(lp4864
F0.0
aF0.0
aF0.0
atp4865
sS'16851'
p4866
((lp4867
(lp4868
F76.479
aa(lp4869
F22.286
aa(lp4870
F50.0
aa(lp4871
F87.60166635211272
aF171.9183674285715
aF0.0
atp4872
sS'16353'
p4873
((lp4874
(lp4875
F0.0
aa(lp4876
F83.704
aa(lp4877
F40.0
aa(lp4878
F0.0
aF86.28257896296293
aF100.0
atp4879
sS'16350'
p4880
((lp4881
(lp4882
F77.077
aa(lp4883
F39.057
aa(lp4884
F-0.0
aa(lp4885
F69.91715976923075
aF99.11000371698114
aF0.0
atp4886
sS'16351'
p4887
((lp4888
(lp4889
F90.0
aa(lp4890
F70.0
aa(lp4891
F90.0
aa(lp4892
F0.0
aF0.0
aI0
atp4893
sS'16983'
p4894
((lp4895
(lp4896
F-0.0
aa(lp4897
F80.857
aa(lp4898
F50.5
aa(lp4899
F0.0
aF30.69387757142859
aF0.75
atp4900
sS'16726'
p4901
((lp4902
(lp4903
F90.0
aa(lp4904
F80.0
aa(lp4905
F90.0
aa(lp4906
F0.0
aF0.0
aI0
atp4907
sS'16817'
p4908
((lp4909
(lp4910
F90.0
aa(lp4911
F80.0
aa(lp4912
F90.0
aa(lp4913
F0.0
aF0.0
aI0
atp4914
sS'16310'
p4915
((lp4916
(lp4917
F0.0
aa(lp4918
F89.444
aa(lp4919
F63.333
aa(lp4920
F0.0
aF5.2469137777777775
aF88.88888899999999
atp4921
sS'16829'
p4922
((lp4923
(lp4924
F0.292
aa(lp4925
F100.0
aa(lp4926
F50.0
aa(lp4927
F2.834461080291967
aF0.0
aF0.0
atp4928
sS'16816'
p4929
((lp4930
(lp4931
F83.75
aa(lp4932
F0.0
aa(lp4933
F35.714
aa(lp4934
F123.4375
aF0.0
aF81.63265314285715
atp4935
sS'16453'
p4936
((lp4937
(lp4938
F90.0
aa(lp4939
F80.0
aa(lp4940
F90.0
aa(lp4941
F0.0
aF0.0
aI0
atp4942
sS'16903'
p4943
((lp4944
(lp4945
F95.4
aa(lp4946
F0.814
aa(lp4947
F24.0
aa(lp4948
F88.83999999999996
aF7.477014604651165
aF24.0
atp4949
sS'16158'
p4950
((lp4951
(lp4952
F90.0
aa(lp4953
F90.0
aa(lp4954
F90.0
aa(lp4955
F0.0
aI0
aI0
atp4956
sS'16901'
p4957
((lp4958
(lp4959
F100.0
aa(lp4960
F58.0
aa(lp4961
F92.0
aa(lp4962
F0.0
aF0.0
aF4.0
atp4963
sS'16900'
p4964
((lp4965
(lp4966
F90.0
aa(lp4967
F90.0
aa(lp4968
F90.0
aa(lp4969
F0.0
aI0
aI0
atp4970
sS'16907'
p4971
((lp4972
(lp4973
F88.148
aa(lp4974
F-0.0
aa(lp4975
F42.727
aa(lp4976
F30.89163239506181
aF0.0
aF92.56198354545445
atp4977
sS'16906'
p4978
((lp4979
(lp4980
F40.204
aa(lp4981
F70.857
aa(lp4982
F0.0
aa(lp4983
F99.95835069387759
aF16.4081632857143
aF0.0
atp4984
sS'16905'
p4985
((lp4986
(lp4987
F85.472
aa(lp4988
F100.0
aa(lp4989
F0.0
aa(lp4990
F24.77750098113206
aF0.0
aF0.0
atp4991
sS'16904'
p4992
((lp4993
(lp4994
F80.0
aa(lp4995
F90.0
aa(lp4996
F90.0
aa(lp4997
F0.0
aF0.0
aI0
atp4998
sS'16455'
p4999
((lp5000
(lp5001
F-0.0
aa(lp5002
F64.286
aa(lp5003
F89.5
aa(lp5004
F0.0
aF81.63265314285711
aF4.75
atp5005
sS'16909'
p5006
((lp5007
(lp5008
F1.515
aa(lp5009
F87.436
aa(lp5010
F46.818
aa(lp5011
F18.916437121212116
aF60.092044717948724
aF67.14876036363633
atp5012
sS'16908'
p5013
((lp5014
(lp5015
F90.0
aa(lp5016
F80.0
aa(lp5017
F90.0
aa(lp5018
F0.0
aF0.0
aI0
atp5019
sS'16454'
p5020
((lp5021
(lp5022
F89.63
aa(lp5023
F30.0
aa(lp5024
F0.0
aa(lp5025
F3.566529629629627
aF0.0
aF0.0
atp5026
sS'16311'
p5027
((lp5028
(lp5029
F80.0
aa(lp5030
F90.0
aa(lp5031
F90.0
aa(lp5032
F0.0
aF0.0
aI0
atp5033
sS'16457'
p5034
((lp5035
(lp5036
F85.769
aa(lp5037
F-0.0
aa(lp5038
F40.0
aa(lp5039
F47.485207153846154
aF0.0
aF100.0
atp5040
sS'16456'
p5041
((lp5042
(lp5043
F56.667
aa(lp5044
F90.0
aa(lp5045
F30.0
aa(lp5046
F88.88888899999999
aF0.0
aF0.0
atp5047
sS'16045'
p5048
((lp5049
(lp5050
F46.86
aa(lp5051
F79.863
aa(lp5052
F-0.0
aa(lp5053
F52.93401860465103
aF99.98123475342419
aF0.0
atp5054
sS'16518'
p5055
((lp5056
(lp5057
F90.0
aa(lp5058
F80.0
aa(lp5059
F80.0
aa(lp5060
F0.0
aF0.0
aI0
atp5061
sS'16519'
p5062
((lp5063
(lp5064
F90.0
aa(lp5065
F0.0
aa(lp5066
F80.0
aa(lp5067
F0.0
aF0.0
aF0.0
atp5068
sS'16048'
p5069
((lp5070
(lp5071
F100.0
aa(lp5072
F63.0
aa(lp5073
F68.0
aa(lp5074
F0.0
aF0.0
aF0.0
atp5075
sS'16049'
p5076
((lp5077
(lp5078
F89.706
aa(lp5079
F0.0
aa(lp5080
F60.0
aa(lp5081
F2.854671294117645
aF0.0
aF100.0
atp5082
sS'16510'
p5083
((lp5084
(lp5085
F94.303
aa(lp5086
F0.893
aa(lp5087
F66.411
aa(lp5088
F30.494879904645355
aF26.13201517647053
aF75.47576212149535
atp5089
sS'16047'
p5090
((lp5091
(lp5092
F92.368
aa(lp5093
F46.5
aa(lp5094
F79.917
aa(lp5095
F18.12742399999999
aF6.25
aF0.076389
atp5096
sS'16512'
p5097
((lp5098
(lp5099
F-0.0
aa(lp5100
F90.0
aa(lp5101
F100.0
aa(lp5102
F0.0
aF0.0
aF0.0
atp5103
sS'16513'
p5104
((lp5105
(lp5106
F47.778
aa(lp5107
F90.0
aa(lp5108
F70.0
aa(lp5109
F39.50617288888881
aF0.0
aF0.0
atp5110
sS'16514'
p5111
((lp5112
(lp5113
F70.0
aa(lp5114
F50.0
aa(lp5115
F90.0
aa(lp5116
F0.0
aF0.0
aF0.0
atp5117
sS'16515'
p5118
((lp5119
(lp5120
F80.0
aa(lp5121
F-0.0
aa(lp5122
F90.0
aa(lp5123
F0.0
aF0.0
aF0.0
atp5124
sS'16516'
p5125
((lp5126
(lp5127
F39.091
aa(lp5128
F84.375
aa(lp5129
F0.0
aa(lp5130
F99.17355372727273
aF99.609375
aF0.0
atp5131
sS'16517'
p5132
((lp5133
(lp5134
F90.0
aa(lp5135
F0.0
aa(lp5136
F80.0
aa(lp5137
F0.0
aF0.0
aF0.0
atp5138
sS'16150'
p5139
((lp5140
(lp5141
F89.688
aa(lp5142
F0.0
aa(lp5143
F50.0
aa(lp5144
F2.506510666666664
aF0.0
aF0.0
atp5145
sS'16151'
p5146
((lp5147
(lp5148
F100.0
aa(lp5149
F100.0
aa(lp5150
F100.0
aa(lp5151
F0.0
aI0
aI0
atp5152
sS'16042'
p5153
((lp5154
(lp5155
F90.0
aa(lp5156
F90.0
aa(lp5157
F90.0
aa(lp5158
F0.0
aI0
aI0
atp5159
sS'16266'
p5160
((lp5161
(lp5162
F-0.0
aa(lp5163
F76.222
aa(lp5164
F45.556
aa(lp5165
F0.0
aF85.72839511111114
aF69.1358026666667
atp5166
sS'16267'
p5167
((lp5168
(lp5169
F62.903
aa(lp5170
F14.0
aa(lp5171
F88.085
aa(lp5172
F91.57127996774199
aF224.0
aF15.48211861702125
atp5173
sS'16332'
p5174
((lp5175
(lp5176
F90.0
aa(lp5177
F80.0
aa(lp5178
F100.0
aa(lp5179
F0.0
aF0.0
aF0.0
atp5180
sS'16136'
p5181
((lp5182
(lp5183
F74.444
aa(lp5184
F48.333
aa(lp5185
F90.0
aa(lp5186
F24.691358222222224
aF30.555555666666663
aF0.0
atp5187
sS'16043'
p5188
((lp5189
(lp5190
F90.0
aa(lp5191
F0.0
aa(lp5192
F80.0
aa(lp5193
F0.0
aF0.0
aF0.0
atp5194
sS'16450'
p5195
((lp5196
(lp5197
F80.0
aa(lp5198
F90.0
aa(lp5199
F80.0
aa(lp5200
F0.0
aF0.0
aI0
atp5201
sS'16604'
p5202
((lp5203
(lp5204
F58.571
aa(lp5205
F89.794
aa(lp5206
F15.0
aa(lp5207
F97.95918385714288
aF2.0193432164948475
aF225.0
atp5208
sS'16330'
p5209
((lp5210
(lp5211
F90.0
aa(lp5212
F80.0
aa(lp5213
F80.0
aa(lp5214
F0.0
aF0.0
aI0
atp5215
sS'16606'
p5216
((lp5217
(lp5218
F80.0
aa(lp5219
F90.0
aa(lp5220
F90.0
aa(lp5221
F0.0
aF0.0
aI0
atp5222
sS'16607'
p5223
((lp5224
(lp5225
F90.0
aa(lp5226
F100.0
aa(lp5227
F80.0
aa(lp5228
F0.0
aF0.0
aF0.0
atp5229
sS'16600'
p5230
((lp5231
(lp5232
F90.0
aa(lp5233
F80.0
aa(lp5234
F90.0
aa(lp5235
F0.0
aF0.0
aI0
atp5236
sS'16601'
p5237
((lp5238
(lp5239
F88.913
aa(lp5240
F0.0
aa(lp5241
F50.0
aa(lp5242
F9.688090739130443
aF0.0
aF0.0
atp5243
sS'16769'
p5244
((lp5245
(lp5246
F90.556
aa(lp5247
F47.5
aa(lp5248
F71.818
aa(lp5249
F5.246913777777777
aF43.75
aF14.876033090909091
atp5250
sS'16331'
p5251
((lp5252
(lp5253
F44.167
aa(lp5254
F78.5
aa(lp5255
F-0.0
aa(lp5256
F82.63888900000002
aF52.75
aF0.0
atp5257
sS'16778'
p5258
((lp5259
(lp5260
F41.765
aa(lp5261
F77.692
aa(lp5262
F0.0
aa(lp5263
F96.88581323529411
aF43.39250502564103
aF0.0
atp5264
sS'16766'
p5265
((lp5266
(lp5267
F90.0
aa(lp5268
F80.0
aa(lp5269
F90.0
aa(lp5270
F0.0
aF0.0
aI0
atp5271
sS'16765'
p5272
((lp5273
(lp5274
F0.0
aa(lp5275
F80.808
aa(lp5276
F44.798
aa(lp5277
F0.0
aF99.00938237524373
aF76.97548141935455
atp5278
sS'16764'
p5279
((lp5280
(lp5281
F90.0
aa(lp5282
F90.0
aa(lp5283
F90.0
aa(lp5284
F0.0
aI0
aI0
atp5285
sS'16763'
p5286
((lp5287
(lp5288
F90.0
aa(lp5289
F90.0
aa(lp5290
F90.0
aa(lp5291
F0.0
aI0
aI0
atp5292
sS'16762'
p5293
((lp5294
(lp5295
F0.057
aa(lp5296
F92.755
aa(lp5297
F39.171
aa(lp5298
F0.4546796930693068
aF78.29832688679251
aF110.43426539024391
atp5299
sS'16761'
p5300
((lp5301
(lp5302
F41.538
aa(lp5303
F86.786
aa(lp5304
F70.0
aa(lp5305
F213.01775169230768
aF21.81122457142857
aF0.0
atp5306
sS'16760'
p5307
((lp5308
(lp5309
F0.0
aa(lp5310
F87.273
aa(lp5311
F35.116
aa(lp5312
F0.0
aF47.1074380909091
aF76.14926995348839
atp5313
sS'16881'
p5314
((lp5315
(lp5316
F81.837
aa(lp5317
F-0.0
aa(lp5318
F42.0
aa(lp5319
F96.62640573469388
aF0.0
aF96.0
atp5320
sS'16569'
p5321
((lp5322
(lp5323
F65.682
aa(lp5324
F88.32
aa(lp5325
F4.286
aa(lp5326
F65.44421490909093
aF45.697599999999994
aF110.2040817142857
atp5327
sS'16568'
p5328
((lp5329
(lp5330
F-0.0
aa(lp5331
F87.826
aa(lp5332
F50.0
aa(lp5333
F0.0
aF17.013232521739134
aF0.0
atp5334
sS'16040'
p5335
((lp5336
(lp5337
F77.778
aa(lp5338
F99.818
aa(lp5339
F90.5
aa(lp5340
F39.50617288888889
aF0.3305785454545455
aF1.85
atp5341
sS'16334'
p5342
((lp5343
(lp5344
F82.593
aa(lp5345
F37.436
aa(lp5346
F-0.0
aa(lp5347
F89.5747601111111
aF93.42537805128197
aF0.0
atp5348
sS'16567'
p5349
((lp5350
(lp5351
F80.0
aa(lp5352
F90.0
aa(lp5353
F80.0
aa(lp5354
F0.0
aF0.0
aI0
atp5355
sS'16566'
p5356
((lp5357
(lp5358
F90.0
aa(lp5359
F0.0
aa(lp5360
F80.0
aa(lp5361
F0.0
aF0.0
aF0.0
atp5362
sS'16561'
p5363
((lp5364
(lp5365
F0.0
aa(lp5366
F90.0
aa(lp5367
F65.0
aa(lp5368
F0.0
aF0.0
aF75.0
atp5369
sS'16560'
p5370
((lp5371
(lp5372
F90.0
aa(lp5373
F80.0
aa(lp5374
F90.0
aa(lp5375
F0.0
aF0.0
aI0
atp5376
sS'16563'
p5377
((lp5378
(lp5379
F80.0
aa(lp5380
F90.0
aa(lp5381
F80.0
aa(lp5382
F0.0
aF0.0
aI0
atp5383
sS'16335'
p5384
((lp5385
(lp5386
F80.0
aa(lp5387
F90.0
aa(lp5388
F80.0
aa(lp5389
F0.0
aF0.0
aI0
atp5390
sS'16356'
p5391
((lp5392
(lp5393
F38.571
aa(lp5394
F84.286
aa(lp5395
F0.0
aa(lp5396
F97.95918385714288
aF81.63265314285714
aF0.0
atp5397
sS'16884'
p5398
((lp5399
(lp5400
F90.0
aa(lp5401
F90.0
aa(lp5402
F90.0
aa(lp5403
F0.0
aI0
aI0
atp5404
sS'16779'
p5405
((lp5406
(lp5407
F80.0
aa(lp5408
F50.0
aa(lp5409
F80.0
aa(lp5410
F0.0
aF0.0
aI0
atp5411
sS'16885'
p5412
((lp5413
(lp5414
F91.463
aa(lp5415
F42.446
aa(lp5416
F71.084
aa(lp5417
F13.740049000000038
aF227.46141599999973
aF9.053456000000017
atp5418
sS'16288'
p5419
((lp5420
(lp5421
F81.123
aa(lp5422
F44.371
aa(lp5423
F-0.0
aa(lp5424
F98.50792899999945
aF80.8955747748345
aF0.0
atp5425
sS'16289'
p5426
((lp5427
(lp5428
F41.364
aa(lp5429
F80.486
aa(lp5430
F0.0
aa(lp5431
F98.14049600000016
aF99.06925155555541
aF0.0
atp5432
sS'16163'
p5433
((lp5434
(lp5435
F80.0
aa(lp5436
F90.0
aa(lp5437
F80.0
aa(lp5438
F0.0
aF0.0
aI0
atp5439
sS'16162'
p5440
((lp5441
(lp5442
F58.485
aa(lp5443
F5.644
aa(lp5444
F91.167
aa(lp5445
F91.64370984848485
aF78.0511716435645
aF46.97222233333329
atp5446
sS'16165'
p5447
((lp5448
(lp5449
F90.0
aa(lp5450
F80.0
aa(lp5451
F90.0
aa(lp5452
F0.0
aF0.0
aI0
atp5453
sS'16164'
p5454
((lp5455
(lp5456
F44.667
aa(lp5457
F78.864
aa(lp5458
F0.0
aa(lp5459
F78.2222223333333
aF98.70867781818191
aF0.0
atp5460
sS'16041'
p5461
((lp5462
(lp5463
F71.667
aa(lp5464
F10.0
aa(lp5465
F91.25
aa(lp5466
F13.888889
aF0.0
aF10.9375
atp5467
sS'16166'
p5468
((lp5469
(lp5470
F90.0
aa(lp5471
F80.0
aa(lp5472
F90.0
aa(lp5473
F0.0
aF0.0
aI0
atp5474
sS'16280'
p5475
((lp5476
(lp5477
F86.522
aa(lp5478
F-0.0
aa(lp5479
F43.846
aa(lp5480
F53.11909269565218
aF0.0
aF85.20710061538459
atp5481
sS'16281'
p5482
((lp5483
(lp5484
F89.978
aa(lp5485
F5.806
aa(lp5486
F63.651
aa(lp5487
F0.2862761146953577
aF140.47866825806446
aF86.67170576190486
atp5488
sS'16282'
p5489
((lp5490
(lp5491
F98.667
aa(lp5492
F55.25
aa(lp5493
F84.143
aa(lp5494
F8.888889
aF113.1875
aF24.40816328571429
atp5495
sS'16283'
p5496
((lp5497
(lp5498
F30.0
aa(lp5499
F78.0
aa(lp5500
F50.0
aa(lp5501
F0.0
aF96.0
aF0.0
atp5502
sS'16284'
p5503
((lp5504
(lp5505
F90.0
aa(lp5506
F0.0
aa(lp5507
F90.0
aa(lp5508
F0.0
aF0.0
aI0
atp5509
sS'16285'
p5510
((lp5511
(lp5512
F92.5
aa(lp5513
F40.0
aa(lp5514
F70.0
aa(lp5515
F18.75
aF100.0
aF0.0
atp5516
sS'16286'
p5517
((lp5518
(lp5519
F-0.0
aa(lp5520
F83.846
aa(lp5521
F36.667
aa(lp5522
F0.0
aF85.2071006153846
aF88.88888899999999
atp5523
sS'16287'
p5524
((lp5525
(lp5526
F75.0
aa(lp5527
F90.0
aa(lp5528
F50.0
aa(lp5529
F25.0
aF0.0
aF0.0
atp5530
sS'16460'
p5531
((lp5532
(lp5533
F90.0
aa(lp5534
F80.0
aa(lp5535
F90.0
aa(lp5536
F0.0
aF0.0
aI0
atp5537
sS'16461'
p5538
((lp5539
(lp5540
F90.0
aa(lp5541
F12.0
aa(lp5542
F66.667
aa(lp5543
F0.0
aF216.0
aF55.555555666666656
atp5544
sS'16462'
p5545
((lp5546
(lp5547
F90.0
aa(lp5548
F80.0
aa(lp5549
F90.0
aa(lp5550
F0.0
aF0.0
aI0
atp5551
sS'16463'
p5552
((lp5553
(lp5554
F86.771
aa(lp5555
F-0.0
aa(lp5556
F45.05
aa(lp5557
F54.15981210481559
aF0.0
aF74.50249999999983
atp5558
sS'16464'
p5559
((lp5560
(lp5561
F87.931
aa(lp5562
F0.0
aa(lp5563
F30.0
aa(lp5564
F30.202140310344813
aF0.0
aF0.0
atp5565
sS'16465'
p5566
((lp5567
(lp5568
F90.0
aa(lp5569
F80.0
aa(lp5570
F90.0
aa(lp5571
F0.0
aF0.0
aI0
atp5572
sS'16466'
p5573
((lp5574
(lp5575
F90.0
aa(lp5576
F80.0
aa(lp5577
F70.0
aa(lp5578
F0.0
aF0.0
aF0.0
atp5579
sS'16467'
p5580
((lp5581
(lp5582
F0.0
aa(lp5583
F100.0
aa(lp5584
F88.182
aa(lp5585
F0.0
aF0.0
aF33.05785127272727
atp5586
sS'16468'
p5587
((lp5588
(lp5589
F0.0
aa(lp5590
F76.667
aa(lp5591
F40.769
aa(lp5592
F0.0
aF88.88888899999999
aF99.4082840769231
atp5593
sS'16469'
p5594
((lp5595
(lp5596
F90.0
aa(lp5597
F80.0
aa(lp5598
F90.0
aa(lp5599
F0.0
aF0.0
aI0
atp5600
sS'16955'
p5601
((lp5602
(lp5603
F80.0
aa(lp5604
F90.0
aa(lp5605
F80.0
aa(lp5606
F0.0
aF0.0
aI0
atp5607
sS'16309'
p5608
((lp5609
(lp5610
F0.0
aa(lp5611
F90.0
aa(lp5612
F0.0
aa(lp5613
I0
aF0.0
aF0.0
atp5614
sS'16308'
p5615
((lp5616
(lp5617
F90.0
aa(lp5618
F80.0
aa(lp5619
F90.0
aa(lp5620
F0.0
aF0.0
aI0
atp5621
sS'16264'
p5622
((lp5623
(lp5624
F90.0
aa(lp5625
F80.0
aa(lp5626
F90.0
aa(lp5627
F0.0
aF0.0
aI0
atp5628
sS'16265'
p5629
((lp5630
(lp5631
F90.0
aa(lp5632
F80.0
aa(lp5633
F80.0
aa(lp5634
F0.0
aF0.0
aI0
atp5635
sS'16262'
p5636
((lp5637
(lp5638
F80.0
aa(lp5639
F90.0
aa(lp5640
F80.0
aa(lp5641
F0.0
aF0.0
aI0
atp5642
sS'16263'
p5643
((lp5644
(lp5645
F38.235
aa(lp5646
F89.28
aa(lp5647
F-0.0
aa(lp5648
F96.88581323529414
aF12.616705084745757
aF0.0
atp5649
sS'16260'
p5650
((lp5651
(lp5652
F64.815
aa(lp5653
F89.444
aa(lp5654
F21.429
aa(lp5655
F76.8175583333334
aF5.246913777777785
aF183.67346957142857
atp5656
sS'16261'
p5657
((lp5658
(lp5659
F90.0
aa(lp5660
F80.0
aa(lp5661
F80.0
aa(lp5662
F0.0
aF0.0
aI0
atp5663
sS'16301'
p5664
((lp5665
(lp5666
F87.664
aa(lp5667
F-0.0
aa(lp5668
F41.818
aa(lp5669
F41.259523737226225
aF0.0
aF96.69421490909089
atp5670
sS'16300'
p5671
((lp5672
(lp5673
F38.889
aa(lp5674
F90.0
aa(lp5675
F0.0
aa(lp5676
F98.76543211111112
aF0.0
aF0.0
atp5677
sS'16303'
p5678
((lp5679
(lp5680
F60.411
aa(lp5681
F6.316
aa(lp5682
F90.0
aa(lp5683
F99.83111278082194
aF149.5844875789475
aF0.0
atp5684
sS'16302'
p5685
((lp5686
(lp5687
F59.787
aa(lp5688
F-0.0
aa(lp5689
F30.0
aa(lp5690
F185.06111368085092
aF0.0
aF0.0
atp5691
sS'16305'
p5692
((lp5693
(lp5694
F94.211
aa(lp5695
F10.0
aa(lp5696
F75.714
aa(lp5697
F24.376731526315783
aF0.0
aF53.06122457142857
atp5698
sS'16304'
p5699
((lp5700
(lp5701
F80.0
aa(lp5702
F90.0
aa(lp5703
F80.0
aa(lp5704
F0.0
aF0.0
aI0
atp5705
sS'16307'
p5706
((lp5707
(lp5708
F90.0
aa(lp5709
F80.0
aa(lp5710
F80.0
aa(lp5711
F0.0
aF0.0
aI0
atp5712
sS'16306'
p5713
((lp5714
(lp5715
F77.931
aa(lp5716
F-0.0
aa(lp5717
F91.356
aa(lp5718
F37.09869203448274
aF0.0
aF11.720769898305099
atp5719
sS'16835'
p5720
((lp5721
(lp5722
F0.0
aa(lp5723
F84.091
aa(lp5724
F36.296
aa(lp5725
F0.0
aF83.26446281818185
aF86.282578962963
atp5726
sS'16023'
p5727
((lp5728
(lp5729
F-0.0
aa(lp5730
F77.107
aa(lp5731
F36.1
aa(lp5732
F0.0
aF89.98019280165288
aF84.78771260997006
atp5733
sS'16654'
p5734
((lp5735
(lp5736
F0.0
aa(lp5737
F90.0
aa(lp5738
F0.0
aa(lp5739
F0.0
aF0.0
aI0
atp5740
sS'16189'
p5741
((lp5742
(lp5743
F90.0
aa(lp5744
F80.0
aa(lp5745
F90.0
aa(lp5746
F0.0
aF0.0
aI0
atp5747
sS'16180'
p5748
((lp5749
(lp5750
F70.896
aa(lp5751
F5.591
aa(lp5752
F92.479
aa(lp5753
F61.62556924675324
aF140.96900827272728
aF22.79123266666669
atp5754
sS'16355'
p5755
((lp5756
(lp5757
F90.0
aa(lp5758
F12.414
aa(lp5759
F63.191
aa(lp5760
F0.0
aF218.31153393103455
aF89.81439589361707
atp5761
sS'16752'
p5762
((lp5763
(lp5764
F0.0
aa(lp5765
F90.0
aa(lp5766
F90.0
aa(lp5767
F0.0
aF0.0
aI0
atp5768
sS'16753'
p5769
((lp5770
(lp5771
F66.407
aa(lp5772
F18.75
aa(lp5773
F90.0
aa(lp5774
F58.94797235329337
aF210.9375
aF0.0
atp5775
sS'16750'
p5776
((lp5777
(lp5778
F0.0
aa(lp5779
F93.785
aa(lp5780
F36.087
aa(lp5781
F0.00018450184501845018
aF46.24407446236558
aF84.68809073913049
atp5782
sS'16359'
p5783
((lp5784
(lp5785
F90.0
aa(lp5786
F0.0
aa(lp5787
F82.0
aa(lp5788
F0.0
aF0.0
aF4.666666666666667
atp5789
sS'16415'
p5790
((lp5791
(lp5792
F98.462
aa(lp5793
F30.75
aa(lp5794
F76.333
aa(lp5795
F13.017751692307694
aF174.6875
aF17.555555666666667
atp5796
sS'16231'
p5797
((lp5798
(lp5799
F90.0
aa(lp5800
F80.0
aa(lp5801
F80.0
aa(lp5802
F0.0
aF0.0
aI0
atp5803
sS'16417'
p5804
((lp5805
(lp5806
F90.0
aa(lp5807
F80.0
aa(lp5808
F90.0
aa(lp5809
F0.0
aF0.0
aI0
atp5810
sS'16203'
p5811
((lp5812
(lp5813
F-0.0
aa(lp5814
F90.0
aa(lp5815
F78.0
aa(lp5816
F0.0
aF0.0
aF16.0
atp5817
sS'16411'
p5818
((lp5819
(lp5820
F90.0
aa(lp5821
F80.0
aa(lp5822
F90.0
aa(lp5823
F0.0
aF0.0
aI0
atp5824
sS'16410'
p5825
((lp5826
(lp5827
F90.0
aa(lp5828
F80.0
aa(lp5829
F90.0
aa(lp5830
F0.0
aF0.0
aI0
atp5831
sS'16413'
p5832
((lp5833
(lp5834
F62.0
aa(lp5835
F90.0
aa(lp5836
F0.0
aa(lp5837
F96.0
aF0.0
aF0.0
atp5838
sS'16722'
p5839
((lp5840
(lp5841
F50.0
aa(lp5842
F72.857
aa(lp5843
F30.0
aa(lp5844
F0.0
aF29.931972809523813
aF0.0
atp5845
sS'16187'
p5846
((lp5847
(lp5848
F90.0
aa(lp5849
F100.0
aa(lp5850
F80.0
aa(lp5851
F0.0
aF0.0
aF0.0
atp5852
sS'16756'
p5853
((lp5854
(lp5855
F42.973
aa(lp5856
F77.063
aa(lp5857
F-0.0
aa(lp5858
F91.16143170270261
aF81.05946106349217
aF0.0
atp5859
sS'16419'
p5860
((lp5861
(lp5862
F90.201
aa(lp5863
F0.91
aa(lp5864
F42.351
aa(lp5865
F86.77194266666666
aF14.238822891566246
aF105.2628501228071
atp5866
sS'16721'
p5867
((lp5868
(lp5869
F90.0
aa(lp5870
F90.0
aa(lp5871
F90.0
aa(lp5872
F0.0
aI0
aI0
atp5873
sS'16949'
p5874
((lp5875
(lp5876
F100.0
aa(lp5877
F26.667
aa(lp5878
F88.333
aa(lp5879
F0.0
aF422.2222223333333
aF13.888888999999994
atp5880
sS'16948'
p5881
((lp5882
(lp5883
F90.0
aa(lp5884
F0.0
aa(lp5885
F60.0
aa(lp5886
F0.0
aF0.0
aF100.0
atp5887
sS'16785'
p5888
((lp5889
(lp5890
F80.0
aa(lp5891
F90.0
aa(lp5892
F80.0
aa(lp5893
F0.0
aF0.0
aI0
atp5894
sS'16784'
p5895
((lp5896
(lp5897
F44.138
aa(lp5898
F83.8
aa(lp5899
F-0.0
aa(lp5900
F82.87752675862072
aF71.56000000000003
aF0.0
atp5901
sS'16787'
p5902
((lp5903
(lp5904
F1.887
aa(lp5905
F85.641
aa(lp5906
F48.824
aa(lp5907
F15.307938811320767
aF65.61472715384612
aF98.61591717647059
atp5908
sS'16232'
p5909
((lp5910
(lp5911
F80.0
aa(lp5912
F90.0
aa(lp5913
F80.0
aa(lp5914
F0.0
aF0.0
aI0
atp5915
sS'16781'
p5916
((lp5917
(lp5918
F90.0
aa(lp5919
F30.0
aa(lp5920
F100.0
aa(lp5921
F0.0
aF0.0
aF0.0
atp5922
sS'16869'
p5923
((lp5924
(lp5925
F42.317
aa(lp5926
F-0.0
aa(lp5927
F79.756
aa(lp5928
F94.62937788888915
aF0.0
aF96.28197502439008
atp5929
sS'16783'
p5930
((lp5931
(lp5932
F83.846
aa(lp5933
F0.0
aa(lp5934
F43.725
aa(lp5935
F83.5876674170042
aF0.0
aF86.12072303921585
atp5936
sS'16782'
p5937
((lp5938
(lp5939
F73.908
aa(lp5940
F8.776
aa(lp5941
F93.233
aa(lp5942
F76.53754375460117
aF136.37817599999994
aF24.778254156794418
atp5943
sS'16864'
p5944
((lp5945
(lp5946
F0.0
aa(lp5947
F0.0
aa(lp5948
F0.0
aa(lp5949
F0.0
aI0
aI0
atp5950
sS'16727'
p5951
((lp5952
(lp5953
F50.0
aa(lp5954
F90.0
aa(lp5955
F80.0
aa(lp5956
F0.0
aF0.0
aF0.0
atp5957
sS'16866'
p5958
((lp5959
(lp5960
F100.0
aa(lp5961
F80.0
aa(lp5962
F90.0
aa(lp5963
F0.0
aF0.0
aF0.0
atp5964
sS'16867'
p5965
((lp5966
(lp5967
F0.0
aa(lp5968
F77.714
aa(lp5969
F92.963
aa(lp5970
F0.0
aF40.48979600000001
aF20.850480111111118
atp5971
sS'16789'
p5972
((lp5973
(lp5974
F82.075
aa(lp5975
F0.0
aa(lp5976
F47.647
aa(lp5977
F76.82449292452829
aF0.0
aF41.522491352941174
atp5978
sS'16861'
p5979
((lp5980
(lp5981
F44.449
aa(lp5982
F1.217
aa(lp5983
F77.585
aa(lp5984
F82.87151899544489
aF15.856332856332655
aF96.08591781045713
atp5985
sS'16862'
p5986
((lp5987
(lp5988
F46.19
aa(lp5989
F70.0
aa(lp5990
F90.0
aa(lp5991
F61.67800476190477
aF0.0
aF0.0
atp5992
sS'16863'
p5993
((lp5994
(lp5995
F78.654
aa(lp5996
F-0.0
aa(lp5997
F38.075
aa(lp5998
F94.34171600000012
aF0.0
aF96.29258152173928
atp5999
sS'16451'
p6000
((lp6001
(lp6002
F94.4
aa(lp6003
F0.0
aa(lp6004
F39.524
aa(lp6005
F96.64000000000001
aF0.0
aF99.77324266666668
atp6006
sS'16725'
p6007
((lp6008
(lp6009
F90.0
aa(lp6010
F90.0
aa(lp6011
F90.0
aa(lp6012
F0.0
aI0
aI0
atp6013
sS'16186'
p6014
((lp6015
(lp6016
F0.0
aa(lp6017
F88.0
aa(lp6018
F43.846
aa(lp6019
F0.0
aF20.444444444444443
aF85.20710061538463
atp6020
sS'16724'
p6021
((lp6022
(lp6023
F90.0
aa(lp6024
F70.0
aa(lp6025
F50.0
aa(lp6026
F0.0
aF0.0
aF0.0
atp6027
sS'16220'
p6028
((lp6029
(lp6030
F90.0
aa(lp6031
F80.0
aa(lp6032
F90.0
aa(lp6033
F0.0
aF0.0
aI0
atp6034
sS'16926'
p6035
((lp6036
(lp6037
F90.0
aa(lp6038
F0.0
aa(lp6039
F50.0
aa(lp6040
F0.0
aF0.0
aF0.0
atp6041
sS'16920'
p6042
((lp6043
(lp6044
F35.0
aa(lp6045
F84.444
aa(lp6046
F0.0
aa(lp6047
F75.0
aF35.80246933333334
aF0.0
atp6048
sS'16953'
p6049
((lp6050
(lp6051
F90.0
aa(lp6052
F100.0
aa(lp6053
F90.0
aa(lp6054
F0.0
aF0.0
aI0
atp6055
sS'16221'
p6056
((lp6057
(lp6058
F80.0
aa(lp6059
F90.0
aa(lp6060
F80.0
aa(lp6061
F0.0
aF0.0
aI0
atp6062
sS'16452'
p6063
((lp6064
(lp6065
F93.0
aa(lp6066
F0.0
aa(lp6067
F80.0
aa(lp6068
F21.0
aF0.0
aF0.0
atp6069
sS'16619'
p6070
((lp6071
(lp6072
F83.333
aa(lp6073
F0.0
aa(lp6074
F36.667
aa(lp6075
F75.55555566666665
aF0.0
aF88.88888899999999
atp6076
sS'16354'
p6077
((lp6078
(lp6079
F38.504
aa(lp6080
F-0.0
aa(lp6081
F84.643
aa(lp6082
F97.76179552756001
aF0.0
aF78.4438775714284
atp6083
sS'16618'
p6084
((lp6085
(lp6086
F0.0
aa(lp6087
F86.129
aa(lp6088
F34.118
aa(lp6089
F0.0
aF75.3381893870968
aF65.39792400000002
atp6090
sS'16589'
p6091
((lp6092
(lp6093
F98.816
aa(lp6094
F-0.0
aa(lp6095
F51.333
aa(lp6096
F12.448936459770085
aF0.0
aF11.555555666666669
atp6097
sS'16653'
p6098
((lp6099
(lp6100
F1.667
aa(lp6101
F85.238
aa(lp6102
F47.778
aa(lp6103
F13.888889000000006
aF72.56235828571423
aF39.506172888888905
atp6104
sS'16648'
p6105
((lp6106
(lp6107
F90.0
aa(lp6108
F80.0
aa(lp6109
F90.0
aa(lp6110
F0.0
aF0.0
aI0
atp6111
sS'16649'
p6112
((lp6113
(lp6114
F90.0
aa(lp6115
F41.667
aa(lp6116
F79.778
aa(lp6117
F0.0
aF97.22222233333336
aF2.1728395555555564
atp6118
sS'16523'
p6119
((lp6120
(lp6121
F96.389
aa(lp6122
F0.0
aa(lp6123
F35.0
aa(lp6124
F39.73765433333331
aF0.0
aF75.0
atp6125
sS'16522'
p6126
((lp6127
(lp6128
F90.0
aa(lp6129
F80.0
aa(lp6130
F90.0
aa(lp6131
F0.0
aF0.0
aI0
atp6132
sS'16525'
p6133
((lp6134
(lp6135
F90.0
aa(lp6136
F80.0
aa(lp6137
F90.0
aa(lp6138
I0
aF0.0
aF0.0
atp6139
sS'16524'
p6140
((lp6141
(lp6142
F57.619
aa(lp6143
F5.714
aa(lp6144
F91.818
aa(lp6145
F87.98185941269837
aF75.28344679365082
aF27.463445678321644
atp6146
sS'16527'
p6147
((lp6148
(lp6149
F78.577
aa(lp6150
F0.0
aa(lp6151
F41.184
aa(lp6152
F95.60374322924864
aF0.0
aF98.59869929199542
atp6153
sS'16526'
p6154
((lp6155
(lp6156
F89.525
aa(lp6157
F41.061
aa(lp6158
F69.369
aa(lp6159
F23.813743811881217
aF263.2690543333334
aF14.615763836879465
atp6160
sS'16529'
p6161
((lp6162
(lp6163
F84.853
aa(lp6164
F0.0
aa(lp6165
F38.036
aa(lp6166
F74.97837370588236
aF0.0
aF96.14158171428582
atp6167
sS'16528'
p6168
((lp6169
(lp6170
F90.0
aa(lp6171
F-0.0
aa(lp6172
F90.0
aa(lp6173
I0
aF0.0
aF0.0
atp6174
sS'16642'
p6175
((lp6176
(lp6177
F80.0
aa(lp6178
F90.0
aa(lp6179
F90.0
aa(lp6180
F0.0
aI0
aF0.0
atp6181
sS'16643'
p6182
((lp6183
(lp6184
F42.048
aa(lp6185
F0.0
aa(lp6186
F82.714
aa(lp6187
F95.80490640963842
aF0.0
aF88.34693885714287
atp6188
sS'16644'
p6189
((lp6190
(lp6191
F88.182
aa(lp6192
F0.0
aa(lp6193
F30.0
aa(lp6194
F33.05785127272727
aF0.0
aF0.0
atp6195
sS'16645'
p6196
((lp6197
(lp6198
F80.0
aa(lp6199
F90.0
aa(lp6200
F90.0
aa(lp6201
F0.0
aF0.0
aI0
atp6202
sS'16646'
p6203
((lp6204
(lp6205
F89.31
aa(lp6206
F-0.0
aa(lp6207
F40.0
aa(lp6208
F11.59334137931038
aF0.0
aF100.0
atp6209
sS'16647'
p6210
((lp6211
(lp6212
F7.016
aa(lp6213
F97.889
aa(lp6214
F65.432
aa(lp6215
F128.96800203174612
aF17.743209888888924
aF147.51807854545453
atp6216
sS'16613'
p6217
((lp6218
(lp6219
F85.8
aa(lp6220
F0.0
aa(lp6221
F46.458
aa(lp6222
F52.359999999999985
aF0.0
aF80.16493066666665
atp6223
sS'16121'
p6224
((lp6225
(lp6226
F41.111
aa(lp6227
F88.261
aa(lp6228
F0.0
aa(lp6229
F98.76543211111112
aF31.758034043478283
aF0.0
atp6230
sS'16612'
p6231
((lp6232
(lp6233
F6.667
aa(lp6234
F90.0
aa(lp6235
F66.0
aa(lp6236
F22.222222333333335
aF0.0
aF64.0
atp6237
sS'16674'
p6238
((lp6239
(lp6240
F80.0
aa(lp6241
F90.0
aa(lp6242
F80.0
aa(lp6243
F0.0
aF0.0
aI0
atp6244
sS'16860'
p6245
((lp6246
(lp6247
F86.327
aa(lp6248
F-0.0
aa(lp6249
F41.282
aa(lp6250
F56.69289263636333
aF0.0
aF98.3563445128204
atp6251
sS'16227'
p6252
((lp6253
(lp6254
F90.0
aa(lp6255
F80.0
aa(lp6256
F90.0
aa(lp6257
F0.0
aF0.0
aI0
atp6258
sS'16002'
p6259
((lp6260
(lp6261
F73.333
aa(lp6262
F34.706
aa(lp6263
F90.359
aa(lp6264
F22.222222333333328
aF71.97231835294119
aF3.167724750000001
atp6265
sS'16003'
p6266
((lp6267
(lp6268
F86.986
aa(lp6269
F-0.0
aa(lp6270
F48.667
aa(lp6271
F51.19159326027391
aF0.0
aF24.888888999999995
atp6272
sS'16120'
p6273
((lp6274
(lp6275
F90.0
aa(lp6276
F100.0
aa(lp6277
F80.0
aa(lp6278
F0.0
aF0.0
aF0.0
atp6279
sS'16001'
p6280
((lp6281
(lp6282
F86.167
aa(lp6283
F38.0
aa(lp6284
F0.0
aa(lp6285
F33.63888899999998
aF96.0
aF0.0
atp6286
sS'16006'
p6287
((lp6288
(lp6289
F0.0
aa(lp6290
F98.333
aa(lp6291
F73.167
aa(lp6292
F0.0
aF13.88888899999999
aF112.138889
atp6293
sS'16007'
p6294
((lp6295
(lp6296
F50.0
aa(lp6297
F80.0
aa(lp6298
F90.0
aa(lp6299
F0.0
aF0.0
aF0.0
atp6300
sS'16004'
p6301
((lp6302
(lp6303
F89.099
aa(lp6304
F-0.0
aa(lp6305
F41.786
aa(lp6306
F17.206395594594518
aF0.0
aF96.81122457142854
atp6307
sS'16005'
p6308
((lp6309
(lp6310
F89.663
aa(lp6311
F3.333
aa(lp6312
F64.286
aa(lp6313
F3.2571645056179697
aF88.888889
aF81.63265314285715
atp6314
sS'16008'
p6315
((lp6316
(lp6317
F-0.0
aa(lp6318
F74.737
aa(lp6319
F41.241
aa(lp6320
F0.0
aF72.29916899999999
aF98.46022698540148
atp6321
sS'16009'
p6322
((lp6323
(lp6324
F80.0
aa(lp6325
F90.0
aa(lp6326
F90.0
aa(lp6327
F0.0
aF0.0
aI0
atp6328
sS'16734'
p6329
((lp6330
(lp6331
F0.205
aa(lp6332
F84.458
aa(lp6333
F100.0
aa(lp6334
F5.805534933774805
aF24.706053156626496
aF0.0
atp6335
sS'16735'
p6336
((lp6337
(lp6338
F90.0
aa(lp6339
F46.0
aa(lp6340
F75.0
aa(lp6341
F0.0
aF64.0
aF25.0
atp6342
sS'16736'
p6343
((lp6344
(lp6345
F63.333
aa(lp6346
F89.818
aa(lp6347
F15.0
aa(lp6348
F88.88888899999999
aF1.785124
aF225.0
atp6349
sS'16737'
p6350
((lp6351
(lp6352
F90.0
aa(lp6353
F90.0
aa(lp6354
F90.0
aa(lp6355
F0.0
aI0
aI0
atp6356
sS'16730'
p6357
((lp6358
(lp6359
F89.545
aa(lp6360
F30.0
aa(lp6361
F50.0
aa(lp6362
F4.338843181818184
aF0.0
aF0.0
atp6363
sS'16731'
p6364
((lp6365
(lp6366
F0.0
aa(lp6367
F88.649
aa(lp6368
F30.0
aa(lp6369
F0.0
aF11.687363162162157
aF0.0
atp6370
sS'16732'
p6371
((lp6372
(lp6373
F90.0
aa(lp6374
F0.0
aa(lp6375
F90.0
aa(lp6376
F0.0
aF0.0
aI0
atp6377
sS'16733'
p6378
((lp6379
(lp6380
F85.602
aa(lp6381
F-0.0
aa(lp6382
F44.409
aa(lp6383
F65.2396972330824
aF0.0
aF80.56422723655906
atp6384
sS'16738'
p6385
((lp6386
(lp6387
F87.034
aa(lp6388
F-0.0
aa(lp6389
F43.617
aa(lp6390
F40.637268994350485
aF0.0
aF86.91715708510627
atp6391
sS'16739'
p6392
((lp6393
(lp6394
F90.0
aa(lp6395
F80.0
aa(lp6396
F90.0
aa(lp6397
F0.0
aF0.0
aI0
atp6398
sS'16183'
p6399
((lp6400
(lp6401
F50.0
aa(lp6402
F76.25
aa(lp6403
F90.0
aa(lp6404
F0.0
aF23.4375
aF0.0
atp6405
sS'16182'
p6406
((lp6407
(lp6408
F90.0
aa(lp6409
F50.0
aa(lp6410
F90.0
aa(lp6411
F0.0
aF0.0
aI0
atp6412
sS'16228'
p6413
((lp6414
(lp6415
F91.002
aa(lp6416
F0.927
aa(lp6417
F40.462
aa(lp6418
F45.38118551815164
aF9.7364150927152
aF127.47929015384611
atp6419
sS'16229'
p6420
((lp6421
(lp6422
F90.0
aa(lp6423
F0.0
aa(lp6424
F30.0
aa(lp6425
F0.0
aF0.0
aF0.0
atp6426
sS'16639'
p6427
((lp6428
(lp6429
F90.0
aa(lp6430
F80.0
aa(lp6431
F100.0
aa(lp6432
F0.0
aF0.0
aF0.0
atp6433
sS'16638'
p6434
((lp6435
(lp6436
F62.632
aa(lp6437
F18.75
aa(lp6438
F90.0
aa(lp6439
F93.07479242105263
aF210.9375
aF0.0
atp6440
sS'16185'
p6441
((lp6442
(lp6443
F80.0
aa(lp6444
F50.0
aa(lp6445
F90.0
aa(lp6446
F0.0
aF0.0
aF0.0
atp6447
sS'16184'
p6448
((lp6449
(lp6450
F84.444
aa(lp6451
F-0.0
aa(lp6452
F41.111
aa(lp6453
F80.24691377777779
aF0.0
aF98.76543211111112
atp6454
sS'16635'
p6455
((lp6456
(lp6457
F80.0
aa(lp6458
F90.0
aa(lp6459
F90.0
aa(lp6460
F0.0
aF0.0
aI0
atp6461
sS'16634'
p6462
((lp6463
(lp6464
F93.466
aa(lp6465
F0.0
aa(lp6466
F55.773
aa(lp6467
F29.545362896551755
aF0.0
aF191.53925627272739
atp6468
sS'16637'
p6469
((lp6470
(lp6471
F0.0
aa(lp6472
F90.0
aa(lp6473
F80.0
aa(lp6474
F0.0
aF0.0
aF0.0
atp6475
sS'16636'
p6476
((lp6477
(lp6478
F41.128
aa(lp6479
F82.295
aa(lp6480
F2.0
aa(lp6481
F98.36882436697259
aF78.85239412751665
aF24.0
atp6482
sS'16631'
p6483
((lp6484
(lp6485
F88.403
aa(lp6486
F0.0
aa(lp6487
F48.333
aa(lp6488
F23.143325666666637
aF0.0
aF30.55555566666666
atp6489
sS'16630'
p6490
((lp6491
(lp6492
F90.0
aa(lp6493
F80.0
aa(lp6494
F90.0
aa(lp6495
F0.0
aF0.0
aI0
atp6496
sS'16633'
p6497
((lp6498
(lp6499
F80.0
aa(lp6500
F90.0
aa(lp6501
F80.0
aa(lp6502
F0.0
aF0.0
aI0
atp6503
sS'16632'
p6504
((lp6505
(lp6506
F90.0
aa(lp6507
F0.0
aa(lp6508
F61.429
aa(lp6509
F0.0
aF0.0
aF97.95918385714288
atp6510
sS'16947'
p6511
((lp6512
(lp6513
F90.0
aa(lp6514
F80.0
aa(lp6515
F90.0
aa(lp6516
F0.0
aF0.0
aI0
atp6517
sS'16855'
p6518
((lp6519
(lp6520
F90.0
aa(lp6521
F0.0
aa(lp6522
F80.0
aa(lp6523
F0.0
aF0.0
aF0.0
atp6524
sS'16414'
p6525
((lp6526
(lp6527
F90.0
aa(lp6528
F80.0
aa(lp6529
F80.0
aa(lp6530
F0.0
aF0.0
aI0
atp6531
sS'16543'
p6532
((lp6533
(lp6534
F80.0
aa(lp6535
F90.0
aa(lp6536
F70.0
aa(lp6537
F0.0
aF0.0
aF0.0
atp6538
sS'16945'
p6539
((lp6540
(lp6541
F80.0
aa(lp6542
F91.379
aa(lp6543
F46.0
aa(lp6544
F0.0
aF11.890606517241379
aF178.0
atp6545
sS'16416'
p6546
((lp6547
(lp6548
F90.0
aa(lp6549
F30.0
aa(lp6550
F90.0
aa(lp6551
F0.0
aF0.0
aI0
atp6552
sS'16943'
p6553
((lp6554
(lp6555
F50.0
aa(lp6556
F87.308
aa(lp6557
F30.0
aa(lp6558
F0.0
aF19.674556307692306
aF0.0
atp6559
sS'16942'
p6560
((lp6561
(lp6562
F79.13
aa(lp6563
F0.0
aa(lp6564
F42.294
aa(lp6565
F96.81583459204397
aF0.0
aF94.73782825422212
atp6566
sS'16159'
p6567
((lp6568
(lp6569
F90.0
aa(lp6570
F90.0
aa(lp6571
F90.0
aa(lp6572
F0.0
aI0
aI0
atp6573
sS'16542'
p6574
((lp6575
(lp6576
F90.0
aa(lp6577
F80.0
aa(lp6578
F90.0
aa(lp6579
F0.0
aF0.0
aI0
atp6580
sS'16859'
p6581
((lp6582
(lp6583
F91.2
aa(lp6584
F50.0
aa(lp6585
F70.0
aa(lp6586
F10.559999999999995
aF0.0
aF0.0
atp6587
sS'16412'
p6588
((lp6589
(lp6590
F0.0
aa(lp6591
F90.263
aa(lp6592
F40.0
aa(lp6593
F0.0
aF2.562326894736842
aF100.0
atp6594
sS'16530'
p6595
((lp6596
(lp6597
F90.0
aa(lp6598
F80.0
aa(lp6599
F90.0
aa(lp6600
F0.0
aF0.0
aI0
atp6601
sS'16858'
p6602
((lp6603
(lp6604
F80.0
aa(lp6605
F90.0
aa(lp6606
F80.0
aa(lp6607
F0.0
aF0.0
aI0
atp6608
sS'16820'
p6609
((lp6610
(lp6611
F89.621
aa(lp6612
F0.0
aa(lp6613
F43.333
aa(lp6614
F6.9021233848238905
aF0.0
aF88.88888899999999
atp6615
sS'16821'
p6616
((lp6617
(lp6618
F0.057
aa(lp6619
F87.287
aa(lp6620
F42.061
aa(lp6621
F1.1428478538681792
aF114.50452190519854
aF114.07260649618347
atp6622
sS'16822'
p6623
((lp6624
(lp6625
F90.0
aa(lp6626
F70.0
aa(lp6627
F80.0
aa(lp6628
F0.0
aF0.0
aF0.0
atp6629
sS'16988'
p6630
((lp6631
(lp6632
F90.0
aa(lp6633
F80.0
aa(lp6634
F90.0
aa(lp6635
F0.0
aF0.0
aI0
atp6636
sS'16824'
p6637
((lp6638
(lp6639
F70.0
aa(lp6640
F0.0
aa(lp6641
F90.0
aa(lp6642
F0.0
aF0.0
aF0.0
atp6643
sS'16825'
p6644
((lp6645
(lp6646
F0.0
aa(lp6647
F56.338
aa(lp6648
F30.0
aa(lp6649
F0.0
aF124.91817568880474
aF0.0
atp6650
sS'16826'
p6651
((lp6652
(lp6653
F90.0
aa(lp6654
F80.0
aa(lp6655
F90.0
aa(lp6656
F0.0
aF0.0
aI0
atp6657
sS'16827'
p6658
((lp6659
(lp6660
F90.0
aa(lp6661
F80.0
aa(lp6662
F90.0
aa(lp6663
F0.0
aF0.0
aI0
atp6664
sS'16828'
p6665
((lp6666
(lp6667
F89.524
aa(lp6668
F3.333
aa(lp6669
F66.0
aa(lp6670
F4.535147428571427
aF88.888889
aF64.0
atp6671
sS'16982'
p6672
((lp6673
(lp6674
F90.0
aa(lp6675
F80.0
aa(lp6676
F90.0
aa(lp6677
F0.0
aF0.0
aI0
atp6678
sS'16981'
p6679
((lp6680
(lp6681
F90.0
aa(lp6682
F90.0
aa(lp6683
F90.0
aa(lp6684
F0.0
aI0
aI0
atp6685
sS'16980'
p6686
((lp6687
(lp6688
F90.0
aa(lp6689
F80.0
aa(lp6690
F90.0
aa(lp6691
F0.0
aF0.0
aI0
atp6692
sS'16987'
p6693
((lp6694
(lp6695
F5.926
aa(lp6696
F88.5
aa(lp6697
F66.667
aa(lp6698
F24.142661185185194
aF67.75
aF55.55555566666672
atp6699
sS'16986'
p6700
((lp6701
(lp6702
F90.0
aa(lp6703
F50.0
aa(lp6704
F80.0
aa(lp6705
F0.0
aF0.0
aF0.0
atp6706
sS'16985'
p6707
((lp6708
(lp6709
F0.0
aa(lp6710
F90.0
aa(lp6711
F50.0
aa(lp6712
F0.0
aF0.0
aF0.0
atp6713
sS'16984'
p6714
((lp6715
(lp6716
F90.0
aa(lp6717
F80.0
aa(lp6718
F90.0
aa(lp6719
F0.0
aF0.0
aI0
atp6720
sS'16540'
p6721
((lp6722
(lp6723
F59.907
aa(lp6724
F90.0
aa(lp6725
F21.0
aa(lp6726
F99.9912658224298
aF0.0
aF189.0
atp6727
sS'16541'
p6728
((lp6729
(lp6730
F62.5
aa(lp6731
F89.744
aa(lp6732
F7.5
aa(lp6733
F93.75
aF2.4983565128205156
aF168.75
atp6734
sS'16547'
p6735
((lp6736
(lp6737
F80.0
aa(lp6738
F90.0
aa(lp6739
F90.0
aa(lp6740
F0.0
aF0.0
aI0
atp6741
sS'16511'
p6742
((lp6743
(lp6744
F0.0
aa(lp6745
F99.31
aa(lp6746
F70.0
aa(lp6747
F0.0
aF6.4209275862069015
aF0.0
atp6748
sS'16418'
p6749
((lp6750
(lp6751
F90.0
aa(lp6752
F80.0
aa(lp6753
F90.0
aa(lp6754
F0.0
aF0.0
aI0
atp6755
sS'16545'
p6756
((lp6757
(lp6758
F90.0
aa(lp6759
F5.455
aa(lp6760
F65.556
aa(lp6761
F0.0
aF133.88429772727275
aF69.13580266666666
atp6762
sS'16544'
p6763
((lp6764
(lp6765
F41.782
aa(lp6766
F0.0
aa(lp6767
F82.444
aa(lp6768
F95.07966945454541
aF0.0
aF94.02469155555559
atp6769
sS'16538'
p6770
((lp6771
(lp6772
F80.0
aa(lp6773
F90.0
aa(lp6774
F80.0
aa(lp6775
F0.0
aF0.0
aI0
atp6776
sS'16788'
p6777
((lp6778
(lp6779
F80.769
aa(lp6780
F0.0
aa(lp6781
F42.0
aa(lp6782
F99.40828407692302
aF0.0
aF96.0
atp6783
sS'16539'
p6784
((lp6785
(lp6786
F0.0
aa(lp6787
F100.0
aa(lp6788
F99.0
aa(lp6789
F0.0
aF0.0
aF0.0
atp6790
sS'16112'
p6791
((lp6792
(lp6793
F76.05
aa(lp6794
F90.083
aa(lp6795
F40.0
aa(lp6796
F22.2475
aF0.15972233333333333
aF0.0
atp6797
sS'16358'
p6798
((lp6799
(lp6800
F95.693
aa(lp6801
F0.224
aa(lp6802
F39.884
aa(lp6803
F31.445186677053876
aF2.531967044776119
aF119.17252576744184
atp6804
sS'16113'
p6805
((lp6806
(lp6807
F38.689
aa(lp6808
F75.534
aa(lp6809
F0.0
aa(lp6810
F98.2816423483144
aF79.08379677669899
aF0.0
atp6811
sS'16940'
p6812
((lp6813
(lp6814
F0.0
aa(lp6815
F88.78
aa(lp6816
F37.059
aa(lp6817
F0.0
aF20.464009756097564
aF91.34948099999995
atp6818
sS'16786'
p6819
((lp6820
(lp6821
F90.0
aa(lp6822
F80.0
aa(lp6823
F90.0
aa(lp6824
F0.0
aF0.0
aI0
atp6825
sS'16768'
p6826
((lp6827
(lp6828
F90.0
aa(lp6829
F80.0
aa(lp6830
F80.0
aa(lp6831
F0.0
aF0.0
aI0
atp6832
sS'16868'
p6833
((lp6834
(lp6835
F42.34
aa(lp6836
F0.0
aa(lp6837
F73.594
aa(lp6838
F94.5224085106382
aF0.0
aF57.39746099999995
atp6839
sS'16520'
p6840
((lp6841
(lp6842
F59.744
aa(lp6843
F89.126
aa(lp6844
F24.828
aa(lp6845
F99.93425394871797
aF7.974361436893195
aF128.41854951724142
atp6846
sS'16780'
p6847
((lp6848
(lp6849
F34.0
aa(lp6850
F84.0
aa(lp6851
F0.0
aa(lp6852
F64.0
aF84.0
aF0.0
atp6853
sS'16044'
p6854
((lp6855
(lp6856
F0.0
aa(lp6857
F83.191
aa(lp6858
F47.895
aa(lp6859
F0.0
aF77.0484384468085
aF37.67313026315789
atp6860
sS'16854'
p6861
((lp6862
(lp6863
F90.0
aa(lp6864
F80.0
aa(lp6865
F90.0
aa(lp6866
F0.0
aF0.0
aI0
atp6867
sS'16857'
p6868
((lp6869
(lp6870
F80.0
aa(lp6871
F90.0
aa(lp6872
F80.0
aa(lp6873
F0.0
aF0.0
aI0
atp6874
sS'16856'
p6875
((lp6876
(lp6877
F90.0
aa(lp6878
F0.0
aa(lp6879
F80.0
aa(lp6880
F0.0
aF0.0
aF0.0
atp6881
sS'16918'
p6882
((lp6883
(lp6884
F71.475
aa(lp6885
F90.0
aa(lp6886
F45.319
aa(lp6887
F12.577264344262288
aF0.0
aF71.70665461702126
atp6888
sS'16919'
p6889
((lp6890
(lp6891
F90.0
aa(lp6892
F90.0
aa(lp6893
F90.0
aa(lp6894
F0.0
aI0
aI0
atp6895
sS'16853'
p6896
((lp6897
(lp6898
F11.667
aa(lp6899
F63.053
aa(lp6900
F89.91
aa(lp6901
F213.88888900000006
aF90.68144057894743
aF0.8927846846846844
atp6902
sS'16852'
p6903
((lp6904
(lp6905
F90.0
aa(lp6906
F80.0
aa(lp6907
F90.0
aa(lp6908
F0.0
aF0.0
aI0
atp6909
sS'16914'
p6910
((lp6911
(lp6912
F66.667
aa(lp6913
F90.0
aa(lp6914
F0.0
aa(lp6915
F55.55555566666666
aF0.0
aF0.0
atp6916
sS'16915'
p6917
((lp6918
(lp6919
F91.267
aa(lp6920
F59.464
aa(lp6921
F0.0
aa(lp6922
F52.939614068870284
aF90.78443885714286
aF0.0
atp6923
sS'16916'
p6924
((lp6925
(lp6926
F40.213
aa(lp6927
F84.706
aa(lp6928
F0.0
aa(lp6929
F99.9547307021277
aF71.97231835294117
aF0.0
atp6930
sS'16917'
p6931
((lp6932
(lp6933
F76.835
aa(lp6934
F20.0
aa(lp6935
F50.0
aa(lp6936
F78.59317436708874
aF200.0
aF0.0
atp6937
sS'16910'
p6938
((lp6939
(lp6940
F90.0
aa(lp6941
F0.0
aa(lp6942
F80.0
aa(lp6943
F0.0
aF0.0
aF0.0
atp6944
sS'16911'
p6945
((lp6946
(lp6947
F90.0
aa(lp6948
F80.0
aa(lp6949
F90.0
aa(lp6950
F0.0
aF0.0
aI0
atp6951
sS'16912'
p6952
((lp6953
(lp6954
F84.516
aa(lp6955
F-0.0
aa(lp6956
F41.463
aa(lp6957
F79.60457858064493
aF0.0
aF97.85841778048768
atp6958
sS'16913'
p6959
((lp6960
(lp6961
F80.987
aa(lp6962
F8.265
aa(lp6963
F48.113
aa(lp6964
F118.74009107792213
aF78.15410255102042
aF30.402278433962273
atp6965
sS'16834'
p6966
((lp6967
(lp6968
F80.0
aa(lp6969
F90.0
aa(lp6970
F100.0
aa(lp6971
F0.0
aF0.0
aF0.0
atp6972
sS'16226'
p6973
((lp6974
(lp6975
F89.71
aa(lp6976
F0.0
aa(lp6977
F50.0
aa(lp6978
F2.8145347826086975
aF0.0
aF0.0
atp6979
sS'16865'
p6980
((lp6981
(lp6982
F87.786
aa(lp6983
F5.0
aa(lp6984
F59.0
aa(lp6985
F27.27476687378646
aF75.0
aF117.0
atp6986
sS'16341'
p6987
((lp6988
(lp6989
F0.183
aa(lp6990
F43.493
aa(lp6991
F79.846
aa(lp6992
F3.281339061957943
aF100.66906370588197
aF135.3609467692307
atp6993
sS'16832'
p6994
((lp6995
(lp6996
F35.556
aa(lp6997
F80.588
aa(lp6998
F0.0
aa(lp6999
F80.24691377777782
aF29.065743999999988
aF0.0
atp7000
s.