(dp0
S'5310'
p1
((lp2
(lp3
F79.265
aa(lp4
F25.0
aa(lp5
F50.0
aa(lp6
F99.45934264705863
aF125.0
aF0.0
atp7
sS'5553'
p8
((lp9
(lp10
F76.734
aa(lp11
F-0.0
aa(lp12
F44.245
aa(lp13
F87.82353991959751
aF0.0
aF81.97757216981135
atp14
sS'5552'
p15
((lp16
(lp17
F-0.0
aa(lp18
F90.0
aa(lp19
F66.0
aa(lp20
F0.0
aF0.0
aF64.0
atp21
sS'5821'
p22
((lp23
(lp24
F58.0
aa(lp25
F90.0
aa(lp26
F0.0
aa(lp27
F96.0
aF0.0
aF0.0
atp28
sS'5820'
p29
((lp30
(lp31
F90.0
aa(lp32
F80.0
aa(lp33
F90.0
aa(lp34
F0.0
aF0.0
aI0
atp35
sS'5823'
p36
((lp37
(lp38
F89.095
aa(lp39
F6.0
aa(lp40
F65.694
aa(lp41
F8.229025000000004
aF144.0
aF67.57330266666663
atp42
sS'5822'
p43
((lp44
(lp45
F90.0
aa(lp46
F80.0
aa(lp47
F100.0
aa(lp48
F0.0
aF0.0
aF0.0
atp49
sS'5825'
p50
((lp51
(lp52
F0.065
aa(lp53
F89.101
aa(lp54
F56.915
aa(lp55
F1.0475647312859555
aF48.09057510071939
aF164.50339521276592
atp56
sS'5824'
p57
((lp58
(lp59
F80.0
aa(lp60
F90.0
aa(lp61
F90.0
aa(lp62
F0.0
aF0.0
aI0
atp63
sS'5827'
p64
((lp65
(lp66
F80.0
aa(lp67
F0.0
aa(lp68
F91.111
aa(lp69
F0.0
aF0.0
aF9.876543222222223
atp70
sS'5826'
p71
((lp72
(lp73
F90.0
aa(lp74
F8.077
aa(lp75
F66.901
aa(lp76
F0.0
aF177.07100592307688
aF52.37056156338034
atp77
sS'5829'
p78
((lp79
(lp80
F59.474
aa(lp81
F97.327
aa(lp82
F0.952
aa(lp83
F89.196676
aF31.467503257425772
aF18.1405897142857
atp84
sS'5828'
p85
((lp86
(lp87
F90.0
aa(lp88
F50.0
aa(lp89
F76.667
aa(lp90
F0.0
aF0.0
aF22.222222333333335
atp91
sS'5980'
p92
((lp93
(lp94
F90.0
aa(lp95
F80.0
aa(lp96
F90.0
aa(lp97
F0.0
aF0.0
aI0
atp98
sS'5981'
p99
((lp100
(lp101
F99.375
aa(lp102
F55.0
aa(lp103
F86.667
aa(lp104
F2.734375
aF25.0
aF22.222222333333335
atp105
sS'5986'
p106
((lp107
(lp108
F59.492
aa(lp109
F20.0
aa(lp110
F91.667
aa(lp111
F99.74145383050848
aF200.0
aF13.88888899999999
atp112
sS'5987'
p113
((lp114
(lp115
F90.0
aa(lp116
F80.0
aa(lp117
F90.0
aa(lp118
F0.0
aF0.0
aI0
atp119
sS'5984'
p120
((lp121
(lp122
F38.763
aa(lp123
F-0.0
aa(lp124
F79.764
aa(lp125
F98.4686974280941
aF0.0
aF99.4726771320753
atp126
sS'5558'
p127
((lp128
(lp129
F90.0
aa(lp130
F90.0
aa(lp131
F90.0
aa(lp132
F0.0
aI0
aI0
atp133
sS'5651'
p134
((lp135
(lp136
F80.0
aa(lp137
F90.0
aa(lp138
F90.0
aa(lp139
F0.0
aF0.0
aI0
atp140
sS'5951'
p141
((lp142
(lp143
F89.474
aa(lp144
F42.125
aa(lp145
F2.667
aa(lp146
F83.61772863157897
aF81.609375
aF29.11111122222222
atp147
sS'5950'
p148
((lp149
(lp150
F79.072
aa(lp151
F-0.0
aa(lp152
F41.888
aa(lp153
F99.13912214432985
aF0.0
aF96.43503351048946
atp154
sS'5180'
p155
((lp156
(lp157
F90.0
aa(lp158
F80.0
aa(lp159
F90.0
aa(lp160
F0.0
aF0.0
aI0
atp161
sS'5461'
p162
((lp163
(lp164
F74.0
aa(lp165
F90.0
aa(lp166
F50.0
aa(lp167
F24.0
aF0.0
aF0.0
atp168
sS'5460'
p169
((lp170
(lp171
F44.154
aa(lp172
F-0.0
aa(lp173
F81.714
aa(lp174
F82.74556215384607
aF0.0
aF88.48979599999997
atp175
sS'5463'
p176
((lp177
(lp178
F37.857
aa(lp179
F79.306
aa(lp180
F0.0
aa(lp181
F95.40816328571437
aF98.94082675144485
aF0.0
atp182
sS'5952'
p183
((lp184
(lp185
F90.0
aa(lp186
F80.0
aa(lp187
F80.0
aa(lp188
F0.0
aF0.0
aI0
atp189
sS'5465'
p190
((lp191
(lp192
F90.0
aa(lp193
F80.0
aa(lp194
F90.0
aa(lp195
F0.0
aF0.0
aI0
atp196
sS'5464'
p197
((lp198
(lp199
F61.842
aa(lp200
F6.702
aa(lp201
F89.861
aa(lp202
F96.60664821052626
aF156.145314638298
aF1.3664803533487242
atp203
sS'5467'
p204
((lp205
(lp206
F38.0
aa(lp207
F94.0
aa(lp208
F0.0
aa(lp209
F96.0
aF24.0
aF0.0
atp210
sS'5466'
p211
((lp212
(lp213
F55.824
aa(lp214
F6.174
aa(lp215
F95.125
aa(lp216
F129.20415247058824
aF36.44801513043476
aF63.484375
atp217
sS'5469'
p218
((lp219
(lp220
F-0.0
aa(lp221
F76.424
aa(lp222
F42.23
aa(lp223
F0.0
aF89.19784222516566
aF95.02830540540486
atp224
sS'5468'
p225
((lp226
(lp227
F85.946
aa(lp228
F0.0
aa(lp229
F40.789
aa(lp230
F61.94302410810822
aF0.0
aF99.37673152631571
atp231
sS'5057'
p232
((lp233
(lp234
F69.0
aa(lp235
F90.0
aa(lp236
F10.0
aa(lp237
F19.0
aF0.0
aF0.0
atp238
sS'5954'
p239
((lp240
(lp241
F90.0
aa(lp242
F80.0
aa(lp243
F80.0
aa(lp244
F0.0
aF0.0
aI0
atp245
sS'5308'
p246
((lp247
(lp248
F90.0
aa(lp249
F90.0
aa(lp250
F90.0
aa(lp251
F0.0
aI0
aI0
atp252
sS'5266'
p253
((lp254
(lp255
F90.0
aa(lp256
F80.0
aa(lp257
F90.0
aa(lp258
F0.0
aF0.0
aI0
atp259
sS'5265'
p260
((lp261
(lp262
F89.624
aa(lp263
F0.0
aa(lp264
F38.0
aa(lp265
F6.744693683881004
aF0.0
aF96.0
atp266
sS'5264'
p267
((lp268
(lp269
F90.0
aa(lp270
F80.0
aa(lp271
F90.0
aa(lp272
F0.0
aF0.0
aI0
atp273
sS'5263'
p274
((lp275
(lp276
F0.563
aa(lp277
F84.189
aa(lp278
F43.6
aa(lp279
F10.950208436619707
aF127.0452885675676
aF107.04000000000003
atp280
sS'5262'
p281
((lp282
(lp283
F2.943
aa(lp284
F40.424
aa(lp285
F82.597
aa(lp286
F32.746717750000194
aF115.68486074576279
aF138.70804536363633
atp287
sS'5261'
p288
((lp289
(lp290
F80.37
aa(lp291
F-0.0
aa(lp292
F43.514
aa(lp293
F99.8628259259259
aF0.0
aF87.65522302702706
atp294
sS'5260'
p295
((lp296
(lp297
F87.6
aa(lp298
F0.0
aa(lp299
F32.5
aa(lp300
F42.23999999999998
aF0.0
aF43.75
atp301
sS'5300'
p302
((lp303
(lp304
F80.0
aa(lp305
F0.0
aa(lp306
F100.0
aa(lp307
F0.0
aF0.0
aF0.0
atp308
sS'5301'
p309
((lp310
(lp311
F85.124
aa(lp312
F45.769
aa(lp313
F5.375
aa(lp314
F63.00116112396685
aF78.2544379230769
aF87.359375
atp315
sS'5302'
p316
((lp317
(lp318
F60.133
aa(lp319
F24.079
aa(lp320
F89.6
aa(lp321
F99.98222233333354
aF142.5727146842107
aF3.8400000000000207
atp322
sS'5303'
p323
((lp324
(lp325
F90.0
aa(lp326
F80.0
aa(lp327
F70.0
aa(lp328
F0.0
aF0.0
aF0.0
atp329
sS'5304'
p330
((lp331
(lp332
F60.0
aa(lp333
F89.0
aa(lp334
F30.0
aa(lp335
F100.0
aF9.0
aF0.0
atp336
sS'5305'
p337
((lp338
(lp339
F0.0
aa(lp340
F81.633
aa(lp341
F40.345
aa(lp342
F0.0
aF95.29362777551026
aF99.88109396551725
atp343
sS'5269'
p344
((lp345
(lp346
F0.011
aa(lp347
F92.443
aa(lp348
F38.794
aa(lp349
F0.10893234133041972
aF82.6966346613092
aF99.40622200823043
atp350
sS'5307'
p351
((lp352
(lp353
F60.877
aa(lp354
F2.658
aa(lp355
F89.81
aa(lp356
F99.23053250877201
aF72.6806602025317
aF1.8597966824644558
atp357
sS'5854'
p358
((lp359
(lp360
F90.0
aa(lp361
F90.0
aa(lp362
F90.0
aa(lp363
F0.0
aI0
aI0
atp364
sS'5855'
p365
((lp366
(lp367
F89.223
aa(lp368
F30.0
aa(lp369
F50.0
aa(lp370
F7.163729000000017
aF0.0
aF0.0
atp371
sS'5856'
p372
((lp373
(lp374
F90.0
aa(lp375
F90.0
aa(lp376
F90.0
aa(lp377
F0.0
aI0
aI0
atp378
sS'5857'
p379
((lp380
(lp381
F100.0
aa(lp382
F0.0
aa(lp383
F0.0
aa(lp384
F0.0
aF0.0
aI0
atp385
sS'5850'
p386
((lp387
(lp388
F39.888
aa(lp389
F82.527
aa(lp390
F0.0
aa(lp391
F99.98737546067396
aF93.43107445454591
aF0.0
atp392
sS'5851'
p393
((lp394
(lp395
F90.0
aa(lp396
F80.0
aa(lp397
F90.0
aa(lp398
F0.0
aF0.0
aI0
atp399
sS'5852'
p400
((lp401
(lp402
F90.0
aa(lp403
F90.0
aa(lp404
F90.0
aa(lp405
F0.0
aI0
aI0
atp406
sS'5853'
p407
((lp408
(lp409
F69.718
aa(lp410
F2.15
aa(lp411
F41.702
aa(lp412
F103.826429982906
aF31.242853982300836
aF87.82616570212765
atp413
sS'5915'
p414
((lp415
(lp416
F90.0
aa(lp417
F80.0
aa(lp418
F90.0
aa(lp419
F0.0
aF0.0
aI0
atp420
sS'5914'
p421
((lp422
(lp423
F77.04
aa(lp424
F0.0
aa(lp425
F45.25
aa(lp426
F84.03840000000031
aF0.0
aF72.4375
atp427
sS'5917'
p428
((lp429
(lp430
F63.793
aa(lp431
F5.0
aa(lp432
F88.261
aa(lp433
F85.61236624137928
aF125.0
aF14.36672969565218
atp434
sS'5916'
p435
((lp436
(lp437
F90.0
aa(lp438
F-0.0
aa(lp439
F80.0
aa(lp440
F0.0
aF0.0
aF0.0
atp441
sS'5858'
p442
((lp443
(lp444
F90.055
aa(lp445
F0.0
aa(lp446
F80.0
aa(lp447
F0.16066136363636374
aF0.0
aF0.0
atp448
sS'5910'
p449
((lp450
(lp451
F80.0
aa(lp452
F90.0
aa(lp453
F80.0
aa(lp454
F0.0
aF0.0
aI0
atp455
sS'5913'
p456
((lp457
(lp458
F90.0
aa(lp459
F90.0
aa(lp460
F90.0
aa(lp461
F0.0
aI0
aI0
atp462
sS'5912'
p463
((lp464
(lp465
F90.0
aa(lp466
F90.0
aa(lp467
F90.0
aa(lp468
F0.0
aI0
aI0
atp469
sS'5189'
p470
((lp471
(lp472
F80.0
aa(lp473
F0.0
aa(lp474
F90.615
aa(lp475
F0.0
aF0.0
aF5.775148076923072
atp476
sS'5414'
p477
((lp478
(lp479
F90.0
aa(lp480
F80.0
aa(lp481
F90.0
aa(lp482
F0.0
aF0.0
aI0
atp483
sS'5415'
p484
((lp485
(lp486
F74.352
aa(lp487
F46.214
aa(lp488
F0.0
aa(lp489
F67.78978054320939
aF61.391271728155175
aF0.0
atp490
sS'5416'
p491
((lp492
(lp493
F90.0
aa(lp494
F80.0
aa(lp495
F80.0
aa(lp496
F0.0
aF0.0
aI0
atp497
sS'5417'
p498
((lp499
(lp500
F90.0
aa(lp501
F80.0
aa(lp502
F90.0
aa(lp503
F0.0
aF0.0
aI0
atp504
sS'5410'
p505
((lp506
(lp507
F35.621
aa(lp508
F83.301
aa(lp509
F0.088
aa(lp510
F80.91689764389145
aF96.02490054042046
aF0.8729481633306668
atp511
sS'5411'
p512
((lp513
(lp514
F41.821
aa(lp515
F75.216
aa(lp516
F0.0
aa(lp517
F96.68433950746271
aF76.49653254321032
aF0.0
atp518
sS'5412'
p519
((lp520
(lp521
F90.0
aa(lp522
F80.0
aa(lp523
F90.0
aa(lp524
F0.0
aF0.0
aI0
atp525
sS'5413'
p526
((lp527
(lp528
F90.0
aa(lp529
F90.0
aa(lp530
F90.0
aa(lp531
F0.0
aI0
aI0
atp532
sS'5387'
p533
((lp534
(lp535
F40.0
aa(lp536
F70.0
aa(lp537
F90.0
aa(lp538
F100.0
aF0.0
aF0.0
atp539
sS'5418'
p540
((lp541
(lp542
F90.0
aa(lp543
F80.0
aa(lp544
F90.0
aa(lp545
F0.0
aF0.0
aI0
atp546
sS'5419'
p547
((lp548
(lp549
F90.0
aa(lp550
F80.0
aa(lp551
F90.0
aa(lp552
F0.0
aF0.0
aI0
atp553
sS'5501'
p554
((lp555
(lp556
F0.0
aa(lp557
F78.933
aa(lp558
F34.348
aa(lp559
F0.0
aF60.19555566666665
aF68.05293008695648
atp560
sS'5003'
p561
((lp562
(lp563
F67.778
aa(lp564
F90.0
aa(lp565
F0.0
aa(lp566
F39.50617288888889
aF0.0
aF0.0
atp567
sS'5002'
p568
((lp569
(lp570
F90.0
aa(lp571
F90.0
aa(lp572
F90.0
aa(lp573
F0.0
aI0
aI0
atp574
sS'5001'
p575
((lp576
(lp577
F13.5
aa(lp578
F88.571
aa(lp579
F50.0
aa(lp580
F182.25
aF12.24489814285715
aF0.0
atp581
sS'5007'
p582
((lp583
(lp584
F81.667
aa(lp585
F38.0
aa(lp586
F0.0
aa(lp587
F97.22222233333336
aF96.0
aF0.0
atp588
sS'5006'
p589
((lp590
(lp591
F80.0
aa(lp592
F90.0
aa(lp593
F90.0
aa(lp594
F0.0
aF0.0
aI0
atp595
sS'5005'
p596
((lp597
(lp598
F90.0
aa(lp599
F90.0
aa(lp600
F90.0
aa(lp601
F0.0
aI0
aI0
atp602
sS'5004'
p603
((lp604
(lp605
F85.81
aa(lp606
F-0.0
aa(lp607
F38.571
aa(lp608
F66.24943333333323
aF0.0
aF97.95918385714275
atp609
sS'5009'
p610
((lp611
(lp612
F85.176
aa(lp613
F0.0
aa(lp614
F38.598
aa(lp615
F75.55709364705875
aF0.0
aF98.03476287850467
atp616
sS'5008'
p617
((lp618
(lp619
F89.882
aa(lp620
F0.0
aa(lp621
F40.909
aa(lp622
F1.1626298823529433
aF0.0
aF99.17355372727273
atp623
sS'5988'
p624
((lp625
(lp626
F90.0
aa(lp627
F1.552
aa(lp628
F68.547
aa(lp629
F0.0
aF44.14387641379311
aF26.94048274301667
atp630
sS'5670'
p631
((lp632
(lp633
F-0.0
aa(lp634
F90.0
aa(lp635
F80.0
aa(lp636
F0.0
aF0.0
aF0.0
atp637
sS'5671'
p638
((lp639
(lp640
F90.0
aa(lp641
F80.0
aa(lp642
F80.0
aa(lp643
F0.0
aF0.0
aI0
atp644
sS'5672'
p645
((lp646
(lp647
F80.0
aa(lp648
F90.0
aa(lp649
F80.0
aa(lp650
F0.0
aF0.0
aI0
atp651
sS'5673'
p652
((lp653
(lp654
F90.0
aa(lp655
F44.545
aa(lp656
F75.385
aa(lp657
F0.0
aF79.33884318181819
aF24.85207115384615
atp658
sS'5674'
p659
((lp660
(lp661
F90.0
aa(lp662
F0.0
aa(lp663
F70.0
aa(lp664
F0.0
aF0.0
aF0.0
atp665
sS'5675'
p666
((lp667
(lp668
F38.19
aa(lp669
F83.188
aa(lp670
F0.0
aa(lp671
F96.72562380952381
aF88.38479327536236
aF0.0
atp672
sS'5676'
p673
((lp674
(lp675
F0.0
aa(lp676
F100.0
aa(lp677
F50.0
aa(lp678
F0.0
aF0.0
aF0.0
atp679
sS'5677'
p680
((lp681
(lp682
F63.333
aa(lp683
F21.429
aa(lp684
F90.0
aa(lp685
F88.88888899999999
aF183.67346957142857
aF0.0
atp686
sS'5678'
p687
((lp688
(lp689
F80.0
aa(lp690
F90.0
aa(lp691
F90.0
aa(lp692
F0.0
aF0.0
aI0
atp693
sS'5679'
p694
((lp695
(lp696
F78.462
aa(lp697
F50.0
aa(lp698
F90.0
aa(lp699
F13.017751692307693
aF0.0
aF0.0
atp700
sS'5773'
p701
((lp702
(lp703
F99.655
aa(lp704
F0.305
aa(lp705
F55.217
aa(lp706
F3.329369827586181
aF2.960200572519089
aF146.6918716086956
atp707
sS'5772'
p708
((lp709
(lp710
F90.0
aa(lp711
F80.0
aa(lp712
F90.0
aa(lp713
F0.0
aF0.0
aI0
atp714
sS'5775'
p715
((lp716
(lp717
F0.0
aa(lp718
F87.917
aa(lp719
F37.5
aa(lp720
F0.0
aF16.493055666666667
aF93.75
atp721
sS'5774'
p722
((lp723
(lp724
F90.0
aa(lp725
F50.0
aa(lp726
F76.25
aa(lp727
F0.0
aF0.0
aF23.4375
atp728
sS'5777'
p729
((lp730
(lp731
F90.0
aa(lp732
F70.0
aa(lp733
F80.0
aa(lp734
F0.0
aF0.0
aF0.0
atp735
sS'5776'
p736
((lp737
(lp738
F80.0
aa(lp739
F90.0
aa(lp740
F90.0
aa(lp741
F0.0
aF0.0
aI0
atp742
sS'5579'
p743
((lp744
(lp745
F90.0
aa(lp746
F80.0
aa(lp747
F90.0
aa(lp748
F0.0
aF0.0
aI0
atp749
sS'5578'
p750
((lp751
(lp752
F0.0
aa(lp753
F80.732
aa(lp754
F44.286
aa(lp755
F0.0
aF50.68411668292684
aF81.63265314285715
atp756
sS'5577'
p757
((lp758
(lp759
F79.259
aa(lp760
F90.0
aa(lp761
F50.0
aa(lp762
F6.858710629629629
aF0.0
aF0.0
atp763
sS'5576'
p764
((lp765
(lp766
F80.0
aa(lp767
F90.0
aa(lp768
F90.0
aa(lp769
F0.0
aF0.0
aI0
atp770
sS'5575'
p771
((lp772
(lp773
F55.0
aa(lp774
F90.0
aa(lp775
F0.0
aa(lp776
F75.0
aF0.0
aF0.0
atp777
sS'5574'
p778
((lp779
(lp780
F90.0
aa(lp781
F80.0
aa(lp782
F80.0
aa(lp783
F0.0
aF0.0
aI0
atp784
sS'5573'
p785
((lp786
(lp787
F80.0
aa(lp788
F90.0
aa(lp789
F80.0
aa(lp790
F0.0
aF0.0
aI0
atp791
sS'5572'
p792
((lp793
(lp794
F90.0
aa(lp795
F70.0
aa(lp796
F70.0
aa(lp797
F0.0
aF0.0
aI0
atp798
sS'5571'
p799
((lp800
(lp801
F90.0
aa(lp802
F3.0
aa(lp803
F78.75
aa(lp804
F0.0
aF81.0
aF10.9375
atp805
sS'5570'
p806
((lp807
(lp808
F100.0
aa(lp809
F77.5
aa(lp810
F90.0
aa(lp811
F0.0
aF18.75
aF0.0
atp812
sS'5982'
p813
((lp814
(lp815
F75.556
aa(lp816
F50.0
aa(lp817
F90.0
aa(lp818
F24.691358222222224
aF0.0
aF0.0
atp819
sS'5816'
p820
((lp821
(lp822
F76.545
aa(lp823
F-0.0
aa(lp824
F44.386
aa(lp825
F88.06611590909083
aF0.0
aF80.76331178947366
atp826
sS'5983'
p827
((lp828
(lp829
F90.0
aa(lp830
F80.0
aa(lp831
F90.0
aa(lp832
F0.0
aF0.0
aI0
atp833
sS'5817'
p834
((lp835
(lp836
F90.0
aa(lp837
F80.0
aa(lp838
F80.0
aa(lp839
F0.0
aF0.0
aI0
atp840
sS'5139'
p841
((lp842
(lp843
F90.0
aa(lp844
F80.0
aa(lp845
F100.0
aa(lp846
F0.0
aF0.0
aF0.0
atp847
sS'5138'
p848
((lp849
(lp850
F0.0
aa(lp851
F81.0
aa(lp852
F41.701
aa(lp853
F0.0
aF99.0
aF97.10768671428502
atp854
sS'5137'
p855
((lp856
(lp857
F0.202
aa(lp858
F97.083
aa(lp859
F51.929
aa(lp860
F3.9995918787878613
aF45.6597223333334
aF165.49489814285712
atp861
sS'5136'
p862
((lp863
(lp864
F99.831
aa(lp865
F1.667
aa(lp866
F71.176
aa(lp867
F1.1916118474576256
aF19.841269952380973
aF122.38062305882349
atp868
sS'5135'
p869
((lp870
(lp871
F90.0
aa(lp872
F13.333
aa(lp873
F62.308
aa(lp874
F0.0
aF88.888889
aF94.67455630769231
atp875
sS'5134'
p876
((lp877
(lp878
F44.483
aa(lp879
F-0.0
aa(lp880
F89.329
aa(lp881
F79.90487520689653
aF0.0
aF26.39520744295302
atp882
sS'5133'
p883
((lp884
(lp885
F90.0
aa(lp886
F80.0
aa(lp887
F90.0
aa(lp888
F0.0
aF0.0
aI0
atp889
sS'5132'
p890
((lp891
(lp892
F90.0
aa(lp893
F80.0
aa(lp894
F90.0
aa(lp895
F0.0
aF0.0
aI0
atp896
sS'5131'
p897
((lp898
(lp899
F89.857
aa(lp900
F0.0
aa(lp901
F66.0
aa(lp902
F1.4081632857142847
aF0.0
aF64.0
atp903
sS'5130'
p904
((lp905
(lp906
F0.0
aa(lp907
F90.278
aa(lp908
F46.0
aa(lp909
F0.0
aF19.36728399999997
aF64.0
atp910
sS'5708'
p911
((lp912
(lp913
F90.0
aa(lp914
F80.0
aa(lp915
F80.0
aa(lp916
F0.0
aF0.0
aI0
atp917
sS'5709'
p918
((lp919
(lp920
F90.0
aa(lp921
F90.0
aa(lp922
F90.0
aa(lp923
F0.0
aI0
aI0
atp924
sS'5704'
p925
((lp926
(lp927
F90.0
aa(lp928
F90.0
aa(lp929
F90.0
aa(lp930
F0.0
aI0
aI0
atp931
sS'5705'
p932
((lp933
(lp934
F38.78
aa(lp935
F0.0
aa(lp936
F80.593
aa(lp937
F98.51112089761624
aF0.0
aF99.37881881132085
atp938
sS'5706'
p939
((lp940
(lp941
F60.0
aa(lp942
F69.0
aa(lp943
F60.0
aa(lp944
F0.0
aF0.0
aI0
atp945
sS'5299'
p946
((lp947
(lp948
F90.0
aa(lp949
F80.0
aa(lp950
F90.0
aa(lp951
F0.0
aF0.0
aI0
atp952
sS'5700'
p953
((lp954
(lp955
F90.0
aa(lp956
F80.0
aa(lp957
F90.0
aa(lp958
F0.0
aF0.0
aI0
atp959
sS'5701'
p960
((lp961
(lp962
F90.0
aa(lp963
F0.0
aa(lp964
F80.0
aa(lp965
F0.0
aF0.0
aF0.0
atp966
sS'5702'
p967
((lp968
(lp969
F89.467
aa(lp970
F0.0
aa(lp971
F68.182
aa(lp972
F5.048888999999995
aF0.0
aF33.05785127272727
atp973
sS'5703'
p974
((lp975
(lp976
F88.942
aa(lp977
F-0.0
aa(lp978
F42.634
aa(lp979
F20.0433296816006
aF0.0
aF93.06458583425476
atp980
sS'5318'
p981
((lp982
(lp983
F90.0
aa(lp984
F80.0
aa(lp985
F90.0
aa(lp986
F0.0
aF0.0
aI0
atp987
sS'5340'
p988
((lp989
(lp990
F89.524
aa(lp991
F0.0
aa(lp992
F65.0
aa(lp993
F4.535147428571424
aF0.0
aF75.0
atp994
sS'5292'
p995
((lp996
(lp997
F0.0
aa(lp998
F100.0
aa(lp999
F0.0
aa(lp1000
F0.0
aF0.0
aI0
atp1001
sS'5118'
p1002
((lp1003
(lp1004
F62.8
aa(lp1005
F90.0
aa(lp1006
F3.529
aa(lp1007
F92.1600000000001
aF0.0
aF93.42560570588236
atp1008
sS'5182'
p1009
((lp1010
(lp1011
F76.522
aa(lp1012
F42.0
aa(lp1013
F90.0
aa(lp1014
F22.68431008695653
aF96.0
aF0.0
atp1015
sS'5183'
p1016
((lp1017
(lp1018
F90.0
aa(lp1019
F80.0
aa(lp1020
F80.0
aa(lp1021
F0.0
aF0.0
aI0
atp1022
sS'5229'
p1023
((lp1024
(lp1025
F0.0
aa(lp1026
F79.444
aa(lp1027
F44.737
aa(lp1028
F0.0
aF94.1358026666666
aF77.56232689473684
atp1029
sS'5228'
p1030
((lp1031
(lp1032
F94.421
aa(lp1033
F8.375
aa(lp1034
F81.093
aa(lp1035
F23.243767315789473
aF126.234375
aF19.41795566666668
atp1036
sS'5186'
p1037
((lp1038
(lp1039
F90.0
aa(lp1040
F80.0
aa(lp1041
F90.0
aa(lp1042
F0.0
aF0.0
aI0
atp1043
sS'5187'
p1044
((lp1045
(lp1046
F95.69
aa(lp1047
F77.261
aa(lp1048
F0.0
aa(lp1049
F23.093900000000005
aF56.75803404347825
aF0.0
atp1050
sS'5184'
p1051
((lp1052
(lp1053
F90.0
aa(lp1054
F100.0
aa(lp1055
F90.0
aa(lp1056
F0.0
aF0.0
aI0
atp1057
sS'5185'
p1058
((lp1059
(lp1060
F65.349
aa(lp1061
F9.0
aa(lp1062
F89.429
aa(lp1063
F71.38994053488373
aF189.0
aF22.530612428571438
atp1064
sS'5223'
p1065
((lp1066
(lp1067
F89.574
aa(lp1068
F0.0
aa(lp1069
F50.0
aa(lp1070
F4.0742419574468105
aF0.0
aF0.0
atp1071
sS'5222'
p1072
((lp1073
(lp1074
F-0.0
aa(lp1075
F97.211
aa(lp1076
F66.895
aa(lp1077
F0.0
aF25.903047315789458
aF118.19944605263159
atp1078
sS'5221'
p1079
((lp1080
(lp1081
F90.755
aa(lp1082
F45.0
aa(lp1083
F70.0
aa(lp1084
F6.977572169811315
aF75.0
aF0.0
atp1085
sS'5220'
p1086
((lp1087
(lp1088
F80.0
aa(lp1089
F90.0
aa(lp1090
F70.0
aa(lp1091
F0.0
aF0.0
aF0.0
atp1092
sS'5227'
p1093
((lp1094
(lp1095
F-0.0
aa(lp1096
F35.047
aa(lp1097
F84.088
aa(lp1098
F0.0
aF75.47094717034666
aF76.72225494890507
atp1099
sS'5226'
p1100
((lp1101
(lp1102
F92.095
aa(lp1103
F-0.0
aa(lp1104
F80.0
aa(lp1105
F13.609977380952383
aF0.0
aF0.0
atp1106
sS'5225'
p1107
((lp1108
(lp1109
F80.0
aa(lp1110
F90.0
aa(lp1111
F90.0
aa(lp1112
F0.0
aF0.0
aI0
atp1113
sS'5224'
p1114
((lp1115
(lp1116
F39.353
aa(lp1117
F75.532
aa(lp1118
F0.0
aa(lp1119
F99.5816935771146
aF80.03621548936174
aF0.0
atp1120
sS'5797'
p1121
((lp1122
(lp1123
F30.0
aa(lp1124
F84.13
aa(lp1125
F50.0
aa(lp1126
F0.0
aF80.76559565217396
aF0.0
atp1127
sS'5796'
p1128
((lp1129
(lp1130
F90.0
aa(lp1131
F80.0
aa(lp1132
F90.0
aa(lp1133
F0.0
aF0.0
aI0
atp1134
sS'5795'
p1135
((lp1136
(lp1137
F0.0
aa(lp1138
F90.5
aa(lp1139
F40.0
aa(lp1140
F0.0
aF14.75
aF0.0
atp1141
sS'5794'
p1142
((lp1143
(lp1144
F90.0
aa(lp1145
F90.0
aa(lp1146
F90.0
aa(lp1147
F0.0
aI0
aI0
atp1148
sS'5793'
p1149
((lp1150
(lp1151
F90.0
aa(lp1152
F80.0
aa(lp1153
F80.0
aa(lp1154
F0.0
aF0.0
aI0
atp1155
sS'5792'
p1156
((lp1157
(lp1158
F90.0
aa(lp1159
F80.0
aa(lp1160
F90.0
aa(lp1161
F0.0
aF0.0
aI0
atp1162
sS'5791'
p1163
((lp1164
(lp1165
F90.0
aa(lp1166
F80.0
aa(lp1167
F90.0
aa(lp1168
F0.0
aF0.0
aI0
atp1169
sS'5790'
p1170
((lp1171
(lp1172
F89.721
aa(lp1173
F0.0
aa(lp1174
F46.867
aa(lp1175
F5.449017192725769
aF0.0
aF52.837857674698796
atp1176
sS'5810'
p1177
((lp1178
(lp1179
F88.333
aa(lp1180
F0.0
aa(lp1181
F30.0
aa(lp1182
F13.888889
aF0.0
aF0.0
atp1183
sS'5811'
p1184
((lp1185
(lp1186
F-0.0
aa(lp1187
F83.077
aa(lp1188
F37.778
aa(lp1189
F0.0
aF90.53254438461539
aF95.0617284444445
atp1190
sS'5812'
p1191
((lp1192
(lp1193
F90.0
aa(lp1194
F80.0
aa(lp1195
F80.0
aa(lp1196
F0.0
aF0.0
aI0
atp1197
sS'5813'
p1198
((lp1199
(lp1200
F90.0
aa(lp1201
F33.333
aa(lp1202
F0.0
aa(lp1203
F0.0
aF55.555555666666656
aF0.0
atp1204
sS'5814'
p1205
((lp1206
(lp1207
F90.0
aa(lp1208
F90.0
aa(lp1209
F90.0
aa(lp1210
F0.0
aI0
aI0
atp1211
sS'5815'
p1212
((lp1213
(lp1214
F80.0
aa(lp1215
F90.0
aa(lp1216
F90.0
aa(lp1217
F0.0
aF0.0
aI0
atp1218
sS'5799'
p1219
((lp1220
(lp1221
F1.875
aa(lp1222
F91.139
aa(lp1223
F54.0
aa(lp1224
F15.234375
aF63.25909315189876
aF144.0
atp1225
sS'5798'
p1226
((lp1227
(lp1228
F60.588
aa(lp1229
F89.804
aa(lp1230
F22.5
aa(lp1231
F99.65397929411763
aF1.9223375686274506
aF168.75
atp1232
sS'5408'
p1233
((lp1234
(lp1235
F90.0
aa(lp1236
F80.0
aa(lp1237
F80.0
aa(lp1238
F0.0
aF0.0
aI0
atp1239
sS'5056'
p1240
((lp1241
(lp1242
F90.0
aa(lp1243
F31.111
aa(lp1244
F78.182
aa(lp1245
F0.0
aF187.65432099999992
aF14.876033090909084
atp1246
sS'5357'
p1247
((lp1248
(lp1249
F90.0
aa(lp1250
F80.0
aa(lp1251
F90.0
aa(lp1252
F0.0
aF0.0
aI0
atp1253
sS'5356'
p1254
((lp1255
(lp1256
F90.0
aa(lp1257
F10.0
aa(lp1258
F30.0
aa(lp1259
F0.0
aF0.0
aF0.0
atp1260
sS'5355'
p1261
((lp1262
(lp1263
F83.75
aa(lp1264
F45.385
aa(lp1265
F0.0
aa(lp1266
F63.4375
aF71.0059173076923
aF0.0
atp1267
sS'5354'
p1268
((lp1269
(lp1270
F86.667
aa(lp1271
F33.333
aa(lp1272
F0.0
aa(lp1273
F37.03703714814814
aF55.555555666666656
aF0.0
atp1274
sS'5353'
p1275
((lp1276
(lp1277
F90.0
aa(lp1278
F80.0
aa(lp1279
F80.0
aa(lp1280
F0.0
aF0.0
aI0
atp1281
sS'5352'
p1282
((lp1283
(lp1284
F90.0
aa(lp1285
F80.0
aa(lp1286
F90.0
aa(lp1287
F0.0
aF0.0
aI0
atp1288
sS'5351'
p1289
((lp1290
(lp1291
F90.0
aa(lp1292
F90.0
aa(lp1293
F90.0
aa(lp1294
F0.0
aI0
aI0
atp1295
sS'5350'
p1296
((lp1297
(lp1298
F90.0
aa(lp1299
F80.0
aa(lp1300
F80.0
aa(lp1301
F0.0
aF0.0
aI0
atp1302
sS'5450'
p1303
((lp1304
(lp1305
F90.0
aa(lp1306
F0.0
aa(lp1307
F68.824
aa(lp1308
F0.0
aF0.0
aF22.14532894117646
atp1309
sS'5451'
p1310
((lp1311
(lp1312
F90.0
aa(lp1313
F80.0
aa(lp1314
F80.0
aa(lp1315
F0.0
aF0.0
aI0
atp1316
sS'5452'
p1317
((lp1318
(lp1319
F43.07
aa(lp1320
F77.995
aa(lp1321
F-0.0
aa(lp1322
F94.62124782608701
aF91.6970923076922
aF0.0
atp1323
sS'5062'
p1324
((lp1325
(lp1326
F90.0
aa(lp1327
F80.0
aa(lp1328
F90.0
aa(lp1329
F0.0
aF0.0
aI0
atp1330
sS'5454'
p1331
((lp1332
(lp1333
F90.0
aa(lp1334
F90.0
aa(lp1335
F90.0
aa(lp1336
F0.0
aI0
aI0
atp1337
sS'5455'
p1338
((lp1339
(lp1340
F90.0
aa(lp1341
F80.0
aa(lp1342
F80.0
aa(lp1343
F0.0
aF0.0
aI0
atp1344
sS'5456'
p1345
((lp1346
(lp1347
F0.303
aa(lp1348
F93.018
aa(lp1349
F43.091
aa(lp1350
F5.968778696969702
aF40.43828891228068
aF102.446281
atp1351
sS'5358'
p1352
((lp1353
(lp1354
F87.8
aa(lp1355
F-0.0
aa(lp1356
F38.0
aa(lp1357
F37.15999999999997
aF0.0
aF96.0
atp1358
sS'5924'
p1359
((lp1360
(lp1361
F90.0
aa(lp1362
F80.0
aa(lp1363
F90.0
aa(lp1364
F0.0
aF0.0
aI0
atp1365
sS'5925'
p1366
((lp1367
(lp1368
F99.888
aa(lp1369
F0.211
aa(lp1370
F77.867
aa(lp1371
F1.1109709662921379
aF1.2188367894736862
aF54.31555566666665
atp1372
sS'5926'
p1373
((lp1374
(lp1375
F89.878
aa(lp1376
F0.169
aa(lp1377
F64.545
aa(lp1378
F1.204640097560971
aF5.056018627118619
aF79.33884318181819
atp1379
sS'5927'
p1380
((lp1381
(lp1382
F0.0
aa(lp1383
F79.994
aa(lp1384
F44.026
aa(lp1385
F0.0
aF86.05229181395359
aF83.79153314285703
atp1386
sS'5920'
p1387
((lp1388
(lp1389
F90.0
aa(lp1390
F80.0
aa(lp1391
F80.0
aa(lp1392
F0.0
aF0.0
aI0
atp1393
sS'5921'
p1394
((lp1395
(lp1396
F99.612
aa(lp1397
F2.5
aa(lp1398
F76.364
aa(lp1399
F3.7326799223301035
aF68.75
aF86.7768596363636
atp1400
sS'5922'
p1401
((lp1402
(lp1403
F84.655
aa(lp1404
F-0.0
aa(lp1405
F40.556
aa(lp1406
F90.39833534482776
aF0.0
aF103.65961219047637
atp1407
sS'5923'
p1408
((lp1409
(lp1410
F90.0
aa(lp1411
F80.0
aa(lp1412
F90.0
aa(lp1413
F0.0
aF0.0
aI0
atp1414
sS'5928'
p1415
((lp1416
(lp1417
F0.0
aa(lp1418
F85.0
aa(lp1419
F40.476
aa(lp1420
F0.0
aF72.36842105263158
aF99.77324266666668
atp1421
sS'5929'
p1422
((lp1423
(lp1424
F36.154
aa(lp1425
F-0.0
aa(lp1426
F87.742
aa(lp1427
F85.20710061538463
aF0.0
aF40.0624349677419
atp1428
sS'5458'
p1429
((lp1430
(lp1431
F86.561
aa(lp1432
F0.0
aa(lp1433
F46.667
aa(lp1434
F36.49018441463414
aF0.0
aF55.55555566666666
atp1435
sS'5459'
p1436
((lp1437
(lp1438
F90.0
aa(lp1439
F-0.0
aa(lp1440
F39.231
aa(lp1441
F0.0
aF0.0
aF99.4082840769231
atp1442
sS'5069'
p1443
((lp1444
(lp1445
F79.173
aa(lp1446
F0.0
aa(lp1447
F43.694
aa(lp1448
F94.80468087969912
aF0.0
aF86.3566269909911
atp1449
sS'5068'
p1450
((lp1451
(lp1452
F80.0
aa(lp1453
F90.0
aa(lp1454
F90.0
aa(lp1455
F0.0
aF0.0
aI0
atp1456
sS'5533'
p1457
((lp1458
(lp1459
F90.0
aa(lp1460
F80.0
aa(lp1461
F80.0
aa(lp1462
F0.0
aF0.0
aI0
atp1463
sS'5532'
p1464
((lp1465
(lp1466
F65.172
aa(lp1467
F5.625
aa(lp1468
F89.176
aa(lp1469
F73.24613572413797
aF137.109375
aF7.55709364705883
atp1470
sS'5531'
p1471
((lp1472
(lp1473
F79.091
aa(lp1474
F50.0
aa(lp1475
F90.0
aa(lp1476
F8.264462818181817
aF0.0
aF0.0
atp1477
sS'5530'
p1478
((lp1479
(lp1480
F80.0
aa(lp1481
F90.0
aa(lp1482
F90.0
aa(lp1483
F0.0
aF0.0
aI0
atp1484
sS'5537'
p1485
((lp1486
(lp1487
F70.336
aa(lp1488
F42.785
aa(lp1489
F90.0
aa(lp1490
F3.2507553272171106
aF186.67753250605315
aF0.0
atp1491
sS'5536'
p1492
((lp1493
(lp1494
F80.0
aa(lp1495
F90.0
aa(lp1496
F80.0
aa(lp1497
F0.0
aF0.0
aI0
atp1498
sS'5535'
p1499
((lp1500
(lp1501
F37.715
aa(lp1502
F81.099
aa(lp1503
F0.0
aa(lp1504
F94.77824806079585
aF92.76319107092208
aF0.0
atp1505
sS'5534'
p1506
((lp1507
(lp1508
F-0.0
aa(lp1509
F38.232
aa(lp1510
F74.249
aa(lp1511
F0.0
aF96.87459592982557
aF64.77923705150212
atp1512
sS'5539'
p1513
((lp1514
(lp1515
F90.0
aa(lp1516
F80.0
aa(lp1517
F90.0
aa(lp1518
F0.0
aF0.0
aI0
atp1519
sS'5538'
p1520
((lp1521
(lp1522
F0.0
aa(lp1523
F90.0
aa(lp1524
F63.333
aa(lp1525
F0.0
aF0.0
aF88.88888899999999
atp1526
sS'5236'
p1527
((lp1528
(lp1529
F99.986
aa(lp1530
F0.0
aa(lp1531
F80.0
aa(lp1532
F0.013331135135135124
aF0.0
aF0.0
atp1533
sS'5789'
p1534
((lp1535
(lp1536
F85.469
aa(lp1537
F-0.0
aa(lp1538
F45.0
aa(lp1539
F62.28027350000002
aF0.0
aF75.0
atp1540
sS'5462'
p1541
((lp1542
(lp1543
F90.0
aa(lp1544
F90.0
aa(lp1545
F90.0
aa(lp1546
F0.0
aI0
aI0
atp1547
sS'5173'
p1548
((lp1549
(lp1550
F41.818
aa(lp1551
F71.905
aa(lp1552
F90.0
aa(lp1553
F233.05785127272728
aF15.419501190476197
aF0.0
atp1554
sS'5172'
p1555
((lp1556
(lp1557
F90.0
aa(lp1558
F50.0
aa(lp1559
F80.0
aa(lp1560
F0.0
aF0.0
aF0.0
atp1561
sS'5171'
p1562
((lp1563
(lp1564
F80.0
aa(lp1565
F90.0
aa(lp1566
F90.0
aa(lp1567
F0.0
aF0.0
aI0
atp1568
sS'5170'
p1569
((lp1570
(lp1571
F0.0
aa(lp1572
F86.818
aa(lp1573
F39.412
aa(lp1574
F0.0
aF48.966942181818155
aF99.65397929411763
atp1575
sS'5177'
p1576
((lp1577
(lp1578
F80.0
aa(lp1579
F90.143
aa(lp1580
F100.0
aa(lp1581
F9.0
aF0.12244899999999999
aF0.0
atp1582
sS'5176'
p1583
((lp1584
(lp1585
F90.0
aa(lp1586
F90.0
aa(lp1587
F90.0
aa(lp1588
F0.0
aI0
aI0
atp1589
sS'5175'
p1590
((lp1591
(lp1592
F90.0
aa(lp1593
F80.0
aa(lp1594
F80.0
aa(lp1595
F0.0
aF0.0
aI0
atp1596
sS'5174'
p1597
((lp1598
(lp1599
F0.0
aa(lp1600
F84.802
aa(lp1601
F40.423
aa(lp1602
F0.0
aF67.89875202259894
aF99.82146421126751
atp1603
sS'5179'
p1604
((lp1605
(lp1606
F95.556
aa(lp1607
F80.0
aa(lp1608
F53.333
aa(lp1609
F24.691358222222224
aF0.0
aF22.222222333333335
atp1610
sS'5178'
p1611
((lp1612
(lp1613
F42.121
aa(lp1614
F89.054
aa(lp1615
F0.0
aa(lp1616
F95.50045918181824
aF40.99707816216223
aF0.0
atp1617
sS'5727'
p1618
((lp1619
(lp1620
F5.886
aa(lp1621
F57.176
aa(lp1622
F90.942
aa(lp1623
F105.26280801849092
aF100.65956911981002
aF76.32615872693009
atp1624
sS'5740'
p1625
((lp1626
(lp1627
F5.544
aa(lp1628
F82.646
aa(lp1629
F47.241
aa(lp1630
F72.4505689113923
aF107.28703028571468
aF115.90098382131609
atp1631
sS'5741'
p1632
((lp1633
(lp1634
F50.0
aa(lp1635
F76.628
aa(lp1636
F24.906
aa(lp1637
F0.0
aF61.884802604651206
aF126.87789260377347
atp1638
sS'5078'
p1639
((lp1640
(lp1641
F90.833
aa(lp1642
F0.0
aa(lp1643
F80.0
aa(lp1644
F6.805555666666664
aF0.0
aF0.0
atp1645
sS'5079'
p1646
((lp1647
(lp1648
F0.0
aa(lp1649
F77.857
aa(lp1650
F40.667
aa(lp1651
F0.0
aF59.693877571428565
aF99.55555566666666
atp1652
sS'5744'
p1653
((lp1654
(lp1655
F90.0
aa(lp1656
F50.0
aa(lp1657
F80.0
aa(lp1658
F0.0
aF0.0
aF0.0
atp1659
sS'5359'
p1660
((lp1661
(lp1662
F70.0
aa(lp1663
F48.235
aa(lp1664
F90.0
aa(lp1665
F0.0
aF32.17993088235295
aF0.0
atp1666
sS'5746'
p1667
((lp1668
(lp1669
F39.242
aa(lp1670
F76.364
aa(lp1671
F0.0
aa(lp1672
F99.42607915151535
aF84.95867781818183
aF0.0
atp1673
sS'5747'
p1674
((lp1675
(lp1676
F90.0
aa(lp1677
F80.0
aa(lp1678
F90.0
aa(lp1679
F0.0
aF0.0
aI0
atp1680
sS'5072'
p1681
((lp1682
(lp1683
F41.579
aa(lp1684
F88.286
aa(lp1685
F0.0
aa(lp1686
F97.50692521052632
aF28.489796000000002
aF0.0
atp1687
sS'5073'
p1688
((lp1689
(lp1690
F0.0
aa(lp1691
F82.308
aa(lp1692
F45.0
aa(lp1693
F0.0
aF79.28994092307693
aF75.0
atp1694
sS'5070'
p1695
((lp1696
(lp1697
F90.0
aa(lp1698
F80.0
aa(lp1699
F90.0
aa(lp1700
F0.0
aF0.0
aI0
atp1701
sS'5071'
p1702
((lp1703
(lp1704
F80.682
aa(lp1705
F-0.0
aa(lp1706
F42.308
aa(lp1707
F97.26239672727274
aF0.0
aF94.6745563076923
atp1708
sS'5076'
p1709
((lp1710
(lp1711
F64.545
aa(lp1712
F-0.0
aa(lp1713
F90.0
aa(lp1714
F79.33884318181816
aF0.0
aF0.0
atp1715
sS'5077'
p1716
((lp1717
(lp1718
F67.714
aa(lp1719
F90.0
aa(lp1720
F0.0
aa(lp1721
F40.48979599999997
aF0.0
aF0.0
atp1722
sS'5074'
p1723
((lp1724
(lp1725
F100.0
aa(lp1726
F100.0
aa(lp1727
F100.0
aa(lp1728
F0.0
aI0
aI0
atp1729
sS'5075'
p1730
((lp1731
(lp1732
F0.0
aa(lp1733
F86.087
aa(lp1734
F38.0
aa(lp1735
F0.0
aF58.60113421739129
aF96.0
atp1736
sS'5586'
p1737
((lp1738
(lp1739
F90.0
aa(lp1740
F100.0
aa(lp1741
F80.0
aa(lp1742
F0.0
aF0.0
aF0.0
atp1743
sS'5587'
p1744
((lp1745
(lp1746
F90.0
aa(lp1747
F90.0
aa(lp1748
F90.0
aa(lp1749
F0.0
aI0
aI0
atp1750
sS'5584'
p1751
((lp1752
(lp1753
F80.0
aa(lp1754
F90.0
aa(lp1755
F90.0
aa(lp1756
F0.0
aF0.0
aI0
atp1757
sS'5585'
p1758
((lp1759
(lp1760
F90.0
aa(lp1761
F90.0
aa(lp1762
F90.0
aa(lp1763
F0.0
aI0
aI0
atp1764
sS'5582'
p1765
((lp1766
(lp1767
F90.0
aa(lp1768
F80.0
aa(lp1769
F90.0
aa(lp1770
F0.0
aF0.0
aI0
atp1771
sS'5583'
p1772
((lp1773
(lp1774
F90.0
aa(lp1775
F70.0
aa(lp1776
F100.0
aa(lp1777
F0.0
aF0.0
aF0.0
atp1778
sS'5629'
p1779
((lp1780
(lp1781
F90.0
aa(lp1782
F90.0
aa(lp1783
F90.0
aa(lp1784
F0.0
aI0
aI0
atp1785
sS'5581'
p1786
((lp1787
(lp1788
F90.0
aa(lp1789
F90.0
aa(lp1790
F90.0
aa(lp1791
F0.0
aI0
aI0
atp1792
sS'5627'
p1793
((lp1794
(lp1795
F90.0
aa(lp1796
F10.0
aa(lp1797
F10.0
aa(lp1798
F0.0
aF0.0
aI0
atp1799
sS'5626'
p1800
((lp1801
(lp1802
F90.0
aa(lp1803
F80.0
aa(lp1804
F90.0
aa(lp1805
F0.0
aF0.0
aI0
atp1806
sS'5625'
p1807
((lp1808
(lp1809
F55.0
aa(lp1810
F0.0
aa(lp1811
F90.0
aa(lp1812
F75.0
aF0.0
aF0.0
atp1813
sS'5624'
p1814
((lp1815
(lp1816
F40.769
aa(lp1817
F-0.0
aa(lp1818
F80.0
aa(lp1819
F99.40828407692308
aF0.0
aF153.57142857142858
atp1820
sS'5623'
p1821
((lp1822
(lp1823
F38.986
aa(lp1824
F81.782
aa(lp1825
F0.0
aa(lp1826
F98.97080469565208
aF92.86344479207933
aF0.0
atp1827
sS'5622'
p1828
((lp1829
(lp1830
F90.0
aa(lp1831
F90.0
aa(lp1832
F90.0
aa(lp1833
F0.0
aI0
aI0
atp1834
sS'5588'
p1835
((lp1836
(lp1837
F87.674
aa(lp1838
F35.455
aa(lp1839
F0.0
aa(lp1840
F27.14981088372096
aF79.33884318181815
aF0.0
atp1841
sS'5589'
p1842
((lp1843
(lp1844
F90.0
aa(lp1845
F80.0
aa(lp1846
F80.0
aa(lp1847
F0.0
aF0.0
aI0
atp1848
sS'5380'
p1849
((lp1850
(lp1851
F70.0
aa(lp1852
F90.0
aa(lp1853
F80.0
aa(lp1854
F0.0
aF0.0
aF0.0
atp1855
sS'5267'
p1856
((lp1857
(lp1858
F42.5
aa(lp1859
F83.333
aa(lp1860
F0.0
aa(lp1861
F93.75
aF88.888889
aF0.0
atp1862
sS'5382'
p1863
((lp1864
(lp1865
F36.667
aa(lp1866
F89.375
aa(lp1867
F0.0
aa(lp1868
F88.88888899999999
aF12.109375
aF0.0
atp1869
sS'5383'
p1870
((lp1871
(lp1872
F90.0
aa(lp1873
F90.0
aa(lp1874
F90.0
aa(lp1875
F0.0
aI0
aI0
atp1876
sS'5384'
p1877
((lp1878
(lp1879
F89.452
aa(lp1880
F0.0
aa(lp1881
F41.429
aa(lp1882
F10.658660164383582
aF0.0
aF97.95918385714288
atp1883
sS'5385'
p1884
((lp1885
(lp1886
F90.0
aa(lp1887
F80.0
aa(lp1888
F80.0
aa(lp1889
F0.0
aF0.0
aI0
atp1890
sS'5386'
p1891
((lp1892
(lp1893
F19.167
aa(lp1894
F64.203
aa(lp1895
F89.157
aa(lp1896
F207.63888900000006
aF82.33564378260877
aF7.722456228915652
atp1897
sS'5309'
p1898
((lp1899
(lp1900
F90.0
aa(lp1901
F90.0
aa(lp1902
F90.0
aa(lp1903
F0.0
aI0
aI0
atp1904
sS'5388'
p1905
((lp1906
(lp1907
F78.039
aa(lp1908
F100.0
aa(lp1909
F90.0
aa(lp1910
F35.371011196078406
aF0.0
aF0.0
atp1911
sS'5389'
p1912
((lp1913
(lp1914
F80.0
aa(lp1915
F90.0
aa(lp1916
F80.0
aa(lp1917
F0.0
aF0.0
aI0
atp1918
sS'5593'
p1919
((lp1920
(lp1921
F91.25
aa(lp1922
F2.0
aa(lp1923
F80.0
aa(lp1924
F9.6875
aF16.0
aF0.0
atp1925
sS'5995'
p1926
((lp1927
(lp1928
F93.704
aa(lp1929
F15.0
aa(lp1930
F76.0
aa(lp1931
F23.31961600000001
aF75.0
aF44.0
atp1932
sS'5994'
p1933
((lp1934
(lp1935
F90.0
aa(lp1936
F50.0
aa(lp1937
F90.0
aa(lp1938
F0.0
aF0.0
aI0
atp1939
sS'5997'
p1940
((lp1941
(lp1942
F0.0
aa(lp1943
F87.368
aa(lp1944
F30.0
aa(lp1945
F0.0
aF35.180055578947325
aF0.0
atp1946
sS'5592'
p1947
((lp1948
(lp1949
F80.0
aa(lp1950
F90.0
aa(lp1951
F90.0
aa(lp1952
F0.0
aF0.0
aI0
atp1953
sS'5991'
p1954
((lp1955
(lp1956
F-0.0
aa(lp1957
F87.066
aa(lp1958
F36.438
aa(lp1959
F0.0
aF44.69810806611582
aF87.31469331506858
atp1960
sS'5990'
p1961
((lp1962
(lp1963
F90.0
aa(lp1964
F50.0
aa(lp1965
F80.0
aa(lp1966
F0.0
aF0.0
aF0.0
atp1967
sS'5993'
p1968
((lp1969
(lp1970
F49.108
aa(lp1971
F83.661
aa(lp1972
F1.073
aa(lp1973
F108.98842349367118
aF119.64008324188782
aF16.229590501210758
atp1974
sS'5992'
p1975
((lp1976
(lp1977
F90.0
aa(lp1978
F80.0
aa(lp1979
F90.0
aa(lp1980
F0.0
aF0.0
aI0
atp1981
sS'5999'
p1982
((lp1983
(lp1984
F61.726
aa(lp1985
F89.014
aa(lp1986
F27.958
aa(lp1987
F73.61836632258066
aF27.067385189189178
aF154.62326400000006
atp1988
sS'5998'
p1989
((lp1990
(lp1991
F9.01
aa(lp1992
F71.076
aa(lp1993
F39.409
aa(lp1994
F63.560585483103566
aF122.72948385282734
aF70.40014023217496
atp1995
sS'5161'
p1996
((lp1997
(lp1998
F90.0
aa(lp1999
F90.0
aa(lp2000
F90.0
aa(lp2001
F0.0
aI0
aI0
atp2002
sS'5319'
p2003
((lp2004
(lp2005
F90.0
aa(lp2006
F80.0
aa(lp2007
F90.0
aa(lp2008
F0.0
aF0.0
aI0
atp2009
sS'5270'
p2010
((lp2011
(lp2012
F88.684
aa(lp2013
F0.0
aa(lp2014
F50.0
aa(lp2015
F16.689750736842097
aF0.0
aF0.0
atp2016
sS'5692'
p2017
((lp2018
(lp2019
F90.0
aa(lp2020
F80.0
aa(lp2021
F90.0
aa(lp2022
F0.0
aF0.0
aI0
atp2023
sS'5599'
p2024
((lp2025
(lp2026
F90.0
aa(lp2027
F80.0
aa(lp2028
F90.0
aa(lp2029
F0.0
aF0.0
aI0
atp2030
sS'5690'
p2031
((lp2032
(lp2033
F90.0
aa(lp2034
F0.0
aa(lp2035
F70.0
aa(lp2036
F0.0
aF0.0
aF0.0
atp2037
sS'5691'
p2038
((lp2039
(lp2040
F90.0
aa(lp2041
F80.0
aa(lp2042
F90.0
aa(lp2043
F0.0
aF0.0
aI0
atp2044
sS'5696'
p2045
((lp2046
(lp2047
F63.158
aa(lp2048
F89.855
aa(lp2049
F22.5
aa(lp2050
F90.02770084210533
aF1.4282713768116022
aF168.75
atp2051
sS'5697'
p2052
((lp2053
(lp2054
F84.672
aa(lp2055
F0.0
aa(lp2056
F44.698
aa(lp2057
F77.62971198766229
aF0.0
aF77.93341040569422
atp2058
sS'5694'
p2059
((lp2060
(lp2061
F70.0
aa(lp2062
F81.667
aa(lp2063
F50.0
aa(lp2064
F0.0
aF13.888888999999997
aF0.0
atp2065
sS'5598'
p2066
((lp2067
(lp2068
F90.0
aa(lp2069
F90.0
aa(lp2070
F90.0
aa(lp2071
F0.0
aI0
aI0
atp2072
sS'5698'
p2073
((lp2074
(lp2075
F57.755
aa(lp2076
F89.658
aa(lp2077
F30.0
aa(lp2078
F94.96043316326531
aF3.3019212649572616
aF0.0
atp2079
sS'5699'
p2080
((lp2081
(lp2082
F71.2
aa(lp2083
F90.0
aa(lp2084
F45.556
aa(lp2085
F10.559999999999995
aF0.0
aF69.13580266666666
atp2086
sS'5271'
p2087
((lp2088
(lp2089
F90.0
aa(lp2090
F90.0
aa(lp2091
F90.0
aa(lp2092
F0.0
aI0
aI0
atp2093
sS'5441'
p2094
((lp2095
(lp2096
F82.923
aa(lp2097
F40.909
aa(lp2098
F0.0
aa(lp2099
F66.84023669230768
aF99.17355372727273
aF0.0
atp2100
sS'5498'
p2101
((lp2102
(lp2103
F20.87
aa(lp2104
F74.559
aa(lp2105
F50.0
aa(lp2106
F190.54820434782604
aF63.04065747058818
aF0.0
atp2107
sS'5306'
p2108
((lp2109
(lp2110
F90.0
aa(lp2111
F90.0
aa(lp2112
F90.0
aa(lp2113
F0.0
aI0
aI0
atp2114
sS'5494'
p2115
((lp2116
(lp2117
F90.0
aa(lp2118
F80.0
aa(lp2119
F90.0
aa(lp2120
F0.0
aF0.0
aI0
atp2121
sS'5495'
p2122
((lp2123
(lp2124
F67.938
aa(lp2125
F0.359
aa(lp2126
F89.639
aa(lp2127
F36.985864618556654
aF10.649360041916209
aF3.4838149759036137
atp2128
sS'5496'
p2129
((lp2130
(lp2131
F-0.0
aa(lp2132
F34.918
aa(lp2133
F78.8
aa(lp2134
F0.0
aF74.17360924590167
aF98.56000000000002
atp2135
sS'5268'
p2136
((lp2137
(lp2138
F90.0
aa(lp2139
F0.0
aa(lp2140
F0.0
aa(lp2141
F0.0
aF0.0
aI0
atp2142
sS'5490'
p2143
((lp2144
(lp2145
F86.013
aa(lp2146
F45.455
aa(lp2147
F0.0
aa(lp2148
F60.57499252941162
aF70.24793409090906
aF0.0
atp2149
sS'5491'
p2150
((lp2151
(lp2152
F90.0
aa(lp2153
F80.0
aa(lp2154
F90.0
aa(lp2155
F0.0
aF0.0
aI0
atp2156
sS'5492'
p2157
((lp2158
(lp2159
F30.0
aa(lp2160
F-0.0
aa(lp2161
F58.75
aa(lp2162
F0.0
aF0.0
aF170.3125
atp2163
sS'5493'
p2164
((lp2165
(lp2166
F90.0
aa(lp2167
F80.0
aa(lp2168
F90.0
aa(lp2169
F0.0
aF0.0
aI0
atp2170
sS'5252'
p2171
((lp2172
(lp2173
F89.63
aa(lp2174
F0.0
aa(lp2175
F63.333
aa(lp2176
F3.566529629629624
aF0.0
aF88.88888899999999
atp2177
sS'5253'
p2178
((lp2179
(lp2180
F90.0
aa(lp2181
F80.0
aa(lp2182
F90.0
aa(lp2183
F0.0
aF0.0
aI0
atp2184
sS'5250'
p2185
((lp2186
(lp2187
F-0.0
aa(lp2188
F88.033
aa(lp2189
F40.0
aa(lp2190
F0.0
aF30.556302114754065
aF100.0
atp2191
sS'5251'
p2192
((lp2193
(lp2194
F90.0
aa(lp2195
F80.0
aa(lp2196
F90.0
aa(lp2197
I0
aF0.0
aF0.0
atp2198
sS'5256'
p2199
((lp2200
(lp2201
F80.0
aa(lp2202
F90.0
aa(lp2203
F90.0
aa(lp2204
F0.0
aF0.0
aI0
atp2205
sS'5257'
p2206
((lp2207
(lp2208
F80.0
aa(lp2209
F90.0
aa(lp2210
F90.0
aa(lp2211
F0.0
aF0.0
aI0
atp2212
sS'5254'
p2213
((lp2214
(lp2215
F0.0
aa(lp2216
F83.636
aa(lp2217
F50.0
aa(lp2218
F0.0
aF23.140496
aF0.0
atp2219
sS'5255'
p2220
((lp2221
(lp2222
F-0.0
aa(lp2223
F73.125
aa(lp2224
F43.889
aa(lp2225
F0.0
aF49.609375
aF84.8765432222221
atp2226
sS'5313'
p2227
((lp2228
(lp2229
F66.19
aa(lp2230
F3.6
aa(lp2231
F86.977
aa(lp2232
F61.67800476190472
aF95.04000000000002
aF25.743645279069757
atp2233
sS'5312'
p2234
((lp2235
(lp2236
F90.0
aa(lp2237
F80.0
aa(lp2238
F90.0
aa(lp2239
F0.0
aF0.0
aI0
atp2240
sS'5311'
p2241
((lp2242
(lp2243
F90.0
aa(lp2244
F80.0
aa(lp2245
F80.0
aa(lp2246
F0.0
aF0.0
aI0
atp2247
sS'5259'
p2248
((lp2249
(lp2250
F70.0
aa(lp2251
F90.0
aa(lp2252
F80.0
aa(lp2253
F0.0
aF0.0
aF0.0
atp2254
sS'5317'
p2255
((lp2256
(lp2257
F90.0
aa(lp2258
F80.0
aa(lp2259
F90.0
aa(lp2260
F0.0
aF0.0
aI0
atp2261
sS'5316'
p2262
((lp2263
(lp2264
F90.0
aa(lp2265
F0.0
aa(lp2266
F80.0
aa(lp2267
F0.0
aF0.0
aF0.0
atp2268
sS'5315'
p2269
((lp2270
(lp2271
F90.0
aa(lp2272
F90.0
aa(lp2273
F90.0
aa(lp2274
F0.0
aI0
aI0
atp2275
sS'5314'
p2276
((lp2277
(lp2278
F0.106
aa(lp2279
F93.75
aa(lp2280
F47.286
aa(lp2281
F0.875207631205673
aF73.4375
aF27.63265314285714
atp2282
sS'5847'
p2283
((lp2284
(lp2285
F88.026
aa(lp2286
F43.2
aa(lp2287
F0.0
aa(lp2288
F30.315097052631575
aF89.75999999999996
aF0.0
atp2289
sS'5846'
p2290
((lp2291
(lp2292
F70.0
aa(lp2293
F90.0
aa(lp2294
F50.0
aa(lp2295
F0.0
aF0.0
aF0.0
atp2296
sS'5845'
p2297
((lp2298
(lp2299
F90.0
aa(lp2300
F80.0
aa(lp2301
F90.0
aa(lp2302
F0.0
aF0.0
aI0
atp2303
sS'5844'
p2304
((lp2305
(lp2306
F71.111
aa(lp2307
F10.0
aa(lp2308
F90.0
aa(lp2309
F9.876543222222221
aF42.857142857142854
aF0.0
atp2310
sS'5843'
p2311
((lp2312
(lp2313
F64.126
aa(lp2314
F7.5
aa(lp2315
F89.167
aa(lp2316
F82.97716271328675
aF168.75
aF7.638889000000004
atp2317
sS'5842'
p2318
((lp2319
(lp2320
F77.727
aa(lp2321
F92.89
aa(lp2322
F49.714
aa(lp2323
F24.271074454545452
aF18.152373972602728
aF51.91836742857142
atp2324
sS'5841'
p2325
((lp2326
(lp2327
F90.0
aa(lp2328
F0.0
aa(lp2329
F80.0
aa(lp2330
F0.0
aF0.0
aF0.0
atp2331
sS'5840'
p2332
((lp2333
(lp2334
F0.0
aa(lp2335
F79.77
aa(lp2336
F40.645
aa(lp2337
F0.0
aF98.79772758620696
aF99.58376693548385
atp2338
sS'5960'
p2339
((lp2340
(lp2341
F90.0
aa(lp2342
F0.0
aa(lp2343
F78.889
aa(lp2344
F0.0
aF0.0
aF9.876543222222221
atp2345
sS'5919'
p2346
((lp2347
(lp2348
F82.114
aa(lp2349
F-0.0
aa(lp2350
F39.824
aa(lp2351
F95.60255279702305
aF0.0
aF99.9690768206328
atp2352
sS'5962'
p2353
((lp2354
(lp2355
F90.0
aa(lp2356
F90.0
aa(lp2357
F90.0
aa(lp2358
F0.0
aI0
aI0
atp2359
sS'5963'
p2360
((lp2361
(lp2362
F-0.0
aa(lp2363
F79.259
aa(lp2364
F41.304
aa(lp2365
F0.0
aF95.7475995185186
aF98.2986768695652
atp2366
sS'5964'
p2367
((lp2368
(lp2369
F89.048
aa(lp2370
F0.0
aa(lp2371
F30.0
aa(lp2372
F18.1405897142857
aF0.0
aF0.0
atp2373
sS'5965'
p2374
((lp2375
(lp2376
F0.0
aa(lp2377
F85.143
aa(lp2378
F43.0
aa(lp2379
F0.0
aF53.55102042857145
aF91.0
atp2380
sS'5849'
p2381
((lp2382
(lp2383
F40.0
aa(lp2384
F9.091
aa(lp2385
F84.0
aa(lp2386
F100.0
aF8.264462818181816
aF84.0
atp2387
sS'5848'
p2388
((lp2389
(lp2390
F87.404
aa(lp2391
F0.0
aa(lp2392
F43.636
aa(lp2393
F39.413831384615314
aF0.0
aF86.77685963636368
atp2394
sS'5238'
p2395
((lp2396
(lp2397
F62.0
aa(lp2398
F30.0
aa(lp2399
F90.0
aa(lp2400
F96.0
aF0.0
aF0.0
atp2401
sS'5239'
p2402
((lp2403
(lp2404
F90.0
aa(lp2405
F80.0
aa(lp2406
F90.0
aa(lp2407
F0.0
aF0.0
aI0
atp2408
sS'5528'
p2409
((lp2410
(lp2411
F50.0
aa(lp2412
F21.951
aa(lp2413
F74.595
aa(lp2414
F0.0
aF176.6805473414635
aF68.07888986486489
atp2415
sS'5407'
p2416
((lp2417
(lp2418
F16.815
aa(lp2419
F78.878
aa(lp2420
F50.066
aa(lp2421
F165.73514807692317
aF90.68982888188991
aF26.890408631578914
atp2422
sS'5406'
p2423
((lp2424
(lp2425
F90.0
aa(lp2426
F80.0
aa(lp2427
F90.0
aa(lp2428
F0.0
aF0.0
aI0
atp2429
sS'5405'
p2430
((lp2431
(lp2432
F90.0
aa(lp2433
F80.0
aa(lp2434
F100.0
aa(lp2435
F0.0
aF0.0
aF0.0
atp2436
sS'5404'
p2437
((lp2438
(lp2439
F90.0
aa(lp2440
F80.0
aa(lp2441
F80.0
aa(lp2442
F0.0
aF0.0
aI0
atp2443
sS'5403'
p2444
((lp2445
(lp2446
F90.0
aa(lp2447
F80.0
aa(lp2448
F90.0
aa(lp2449
F0.0
aF0.0
aI0
atp2450
sS'5402'
p2451
((lp2452
(lp2453
F94.286
aa(lp2454
F0.0
aa(lp2455
F56.867
aa(lp2456
F81.63265314285714
aF0.0
aF60.71555566666666
atp2457
sS'5401'
p2458
((lp2459
(lp2460
F90.0
aa(lp2461
F80.0
aa(lp2462
F80.0
aa(lp2463
F0.0
aF0.0
aI0
atp2464
sS'5400'
p2465
((lp2466
(lp2467
F90.0
aa(lp2468
F44.286
aa(lp2469
F70.0
aa(lp2470
F0.0
aF81.63265314285715
aF0.0
atp2471
sS'5911'
p2472
((lp2473
(lp2474
F37.143
aa(lp2475
F87.5
aa(lp2476
F0.0
aa(lp2477
F91.83673471428574
aF43.75
aF0.0
atp2478
sS'5409'
p2479
((lp2480
(lp2481
F77.333
aa(lp2482
F-0.0
aa(lp2483
F90.843
aa(lp2484
F59.55555566666666
aF0.0
aF7.722456228915655
atp2485
sS'5859'
p2486
((lp2487
(lp2488
F78.857
aa(lp2489
F0.0
aa(lp2490
F48.222
aa(lp2491
F95.83673471428571
aF0.0
aF32.395061777777805
atp2492
sS'5529'
p2493
((lp2494
(lp2495
F90.0
aa(lp2496
F80.0
aa(lp2497
F90.0
aa(lp2498
F0.0
aF0.0
aI0
atp2499
sS'5038'
p2500
((lp2501
(lp2502
F90.0
aa(lp2503
F80.0
aa(lp2504
F90.0
aa(lp2505
F0.0
aF0.0
aI0
atp2506
sS'5039'
p2507
((lp2508
(lp2509
F-0.0
aa(lp2510
F80.419
aa(lp2511
F39.371
aa(lp2512
F0.0
aF97.20676518848164
aF99.60460651724135
atp2513
sS'5036'
p2514
((lp2515
(lp2516
F80.0
aa(lp2517
F90.0
aa(lp2518
F80.0
aa(lp2519
F0.0
aF0.0
aI0
atp2520
sS'5037'
p2521
((lp2522
(lp2523
F80.0
aa(lp2524
F17.0
aa(lp2525
F90.0
aa(lp2526
F0.0
aF289.0
aF0.0
atp2527
sS'5034'
p2528
((lp2529
(lp2530
F62.5
aa(lp2531
F8.571
aa(lp2532
F89.307
aa(lp2533
F93.75
aF183.67346957142854
aF6.450348009900987
atp2534
sS'5035'
p2535
((lp2536
(lp2537
F0.0
aa(lp2538
F90.0
aa(lp2539
F75.0
aa(lp2540
F0.0
aF0.0
aF25.0
atp2541
sS'5032'
p2542
((lp2543
(lp2544
F90.0
aa(lp2545
F10.0
aa(lp2546
F10.0
aa(lp2547
F0.0
aF0.0
aI0
atp2548
sS'5033'
p2549
((lp2550
(lp2551
F-0.0
aa(lp2552
F81.75
aa(lp2553
F46.058
aa(lp2554
F0.0
aF98.72321428571429
aF63.295860350365075
atp2555
sS'5030'
p2556
((lp2557
(lp2558
F40.0
aa(lp2559
F89.322
aa(lp2560
F0.0
aa(lp2561
F100.0
aF6.320022983050845
aF0.0
atp2562
sS'5031'
p2563
((lp2564
(lp2565
F80.571
aa(lp2566
F45.833
aa(lp2567
F0.0
aa(lp2568
F91.102041
aF65.97222233333332
aF0.0
atp2569
sS'5663'
p2570
((lp2571
(lp2572
F9.623
aa(lp2573
F91.538
aa(lp2574
F61.208
aa(lp2575
F196.08401579245282
aF21.301775360946777
aF111.32196062921358
atp2576
sS'5662'
p2577
((lp2578
(lp2579
F50.0
aa(lp2580
F76.514
aa(lp2581
F28.436
aa(lp2582
F0.0
aF85.71524478048684
aF44.48511440490769
atp2583
sS'5661'
p2584
((lp2585
(lp2586
F89.31
aa(lp2587
F0.0
aa(lp2588
F40.0
aa(lp2589
F13.317479310344806
aF0.0
aF100.0
atp2590
sS'5660'
p2591
((lp2592
(lp2593
F77.463
aa(lp2594
F43.137
aa(lp2595
F-0.0
aa(lp2596
F89.08442870149257
aF90.15763174509804
aF0.0
atp2597
sS'5667'
p2598
((lp2599
(lp2600
F90.029
aa(lp2601
F79.52
aa(lp2602
F48.5
aa(lp2603
F0.14619394117647033
aF3.3695999999999997
aF90.25
atp2604
sS'5666'
p2605
((lp2606
(lp2607
F40.116
aa(lp2608
F-0.0
aa(lp2609
F85.39
aa(lp2610
F99.98658341312782
aF0.0
aF70.20079888475838
atp2611
sS'5665'
p2612
((lp2613
(lp2614
F42.143
aa(lp2615
F0.0
aa(lp2616
F81.226
aa(lp2617
F95.40816328571418
aF0.0
aF97.5525099622643
atp2618
sS'5664'
p2619
((lp2620
(lp2621
F0.0
aa(lp2622
F86.0
aa(lp2623
F42.0
aa(lp2624
F0.0
aF64.0
aF96.0
atp2625
sS'5669'
p2626
((lp2627
(lp2628
F87.291
aa(lp2629
F-0.0
aa(lp2630
F40.118
aa(lp2631
F41.3033526417911
aF0.0
aF99.98615929411781
atp2632
sS'5668'
p2633
((lp2634
(lp2635
F90.0
aa(lp2636
F-0.0
aa(lp2637
F62.0
aa(lp2638
F0.0
aF0.0
aF96.0
atp2639
sS'5548'
p2640
((lp2641
(lp2642
F90.0
aa(lp2643
F90.0
aa(lp2644
F90.0
aa(lp2645
F0.0
aI0
aI0
atp2646
sS'5549'
p2647
((lp2648
(lp2649
F-0.0
aa(lp2650
F86.667
aa(lp2651
F45.0
aa(lp2652
F0.0
aF48.14814825925927
aF75.0
atp2653
sS'5542'
p2654
((lp2655
(lp2656
F-0.0
aa(lp2657
F39.036
aa(lp2658
F77.703
aa(lp2659
F0.0
aF99.06980361421293
aF93.37107386486493
atp2660
sS'5543'
p2661
((lp2662
(lp2663
F90.0
aa(lp2664
F10.0
aa(lp2665
F90.0
aa(lp2666
F0.0
aF0.0
aI0
atp2667
sS'5540'
p2668
((lp2669
(lp2670
F90.0
aa(lp2671
F10.0
aa(lp2672
F10.0
aa(lp2673
F0.0
aF0.0
aI0
atp2674
sS'5541'
p2675
((lp2676
(lp2677
F78.846
aa(lp2678
F25.0
aa(lp2679
F50.0
aa(lp2680
F87.13017753846151
aF125.0
aF0.0
atp2681
sS'5546'
p2682
((lp2683
(lp2684
F20.0
aa(lp2685
F83.908
aa(lp2686
F68.167
aa(lp2687
F261.53846153846155
aF27.099930666666662
aF16.872222333333337
atp2688
sS'5547'
p2689
((lp2690
(lp2691
F81.333
aa(lp2692
F0.0
aa(lp2693
F44.667
aa(lp2694
F78.22222233333333
aF0.0
aF78.22222233333332
atp2695
sS'5544'
p2696
((lp2697
(lp2698
F80.0
aa(lp2699
F90.0
aa(lp2700
F90.0
aa(lp2701
F0.0
aF0.0
aI0
atp2702
sS'5545'
p2703
((lp2704
(lp2705
F90.0
aa(lp2706
F90.0
aa(lp2707
F90.0
aa(lp2708
F0.0
aI0
aI0
atp2709
sS'5780'
p2710
((lp2711
(lp2712
F90.0
aa(lp2713
F90.0
aa(lp2714
F90.0
aa(lp2715
F0.0
aI0
aI0
atp2716
sS'5781'
p2717
((lp2718
(lp2719
F90.238
aa(lp2720
F2.727
aa(lp2721
F68.333
aa(lp2722
F2.3242630476190533
aF74.38016536363635
aF30.55555566666666
atp2723
sS'5953'
p2724
((lp2725
(lp2726
F-0.0
aa(lp2727
F90.053
aa(lp2728
F40.203
aa(lp2729
F0.0
aF3.6950435483358404
aF100.7585437547974
atp2730
sS'5890'
p2731
((lp2732
(lp2733
F89.677
aa(lp2734
F0.0
aa(lp2735
F100.0
aa(lp2736
F3.1217483548387097
aF0.0
aF0.0
atp2737
sS'5891'
p2738
((lp2739
(lp2740
F90.0
aa(lp2741
F80.0
aa(lp2742
F80.0
aa(lp2743
F0.0
aF0.0
aI0
atp2744
sS'5108'
p2745
((lp2746
(lp2747
F90.0
aa(lp2748
F80.0
aa(lp2749
F90.0
aa(lp2750
F0.0
aF0.0
aI0
atp2751
sS'5109'
p2752
((lp2753
(lp2754
F89.118
aa(lp2755
F63.913
aa(lp2756
F0.0
aa(lp2757
F8.044982823529415
aF84.68809073913042
aF0.0
atp2758
sS'5894'
p2759
((lp2760
(lp2761
F90.0
aa(lp2762
F0.0
aa(lp2763
F80.0
aa(lp2764
F0.0
aF0.0
aF0.0
atp2765
sS'5895'
p2766
((lp2767
(lp2768
F93.821
aa(lp2769
F0.549
aa(lp2770
F40.757
aa(lp2771
F75.04254846268654
aF8.333237575875529
aF130.0695918571429
atp2772
sS'5896'
p2773
((lp2774
(lp2775
F90.0
aa(lp2776
F80.0
aa(lp2777
F80.0
aa(lp2778
F0.0
aF0.0
aI0
atp2779
sS'5897'
p2780
((lp2781
(lp2782
F90.0
aa(lp2783
F80.0
aa(lp2784
F90.0
aa(lp2785
F0.0
aF0.0
aI0
atp2786
sS'5102'
p2787
((lp2788
(lp2789
F90.0
aa(lp2790
F80.0
aa(lp2791
F90.0
aa(lp2792
F0.0
aF0.0
aI0
atp2793
sS'5103'
p2794
((lp2795
(lp2796
F90.0
aa(lp2797
F0.0
aa(lp2798
F36.667
aa(lp2799
F0.0
aF0.0
aF88.88888899999999
atp2800
sS'5100'
p2801
((lp2802
(lp2803
F39.333
aa(lp2804
F80.294
aa(lp2805
F0.0
aa(lp2806
F99.5555556666667
aF91.08996541176464
aF0.0
atp2807
sS'5101'
p2808
((lp2809
(lp2810
F38.039
aa(lp2811
F0.195
aa(lp2812
F84.887
aa(lp2813
F96.15532492156855
aF1.916200895765475
aF94.16021260902252
atp2814
sS'5106'
p2815
((lp2816
(lp2817
F80.0
aa(lp2818
F0.0
aa(lp2819
F90.0
aa(lp2820
F0.0
aF0.0
aF0.0
atp2821
sS'5107'
p2822
((lp2823
(lp2824
F79.571
aa(lp2825
F100.0
aa(lp2826
F67.667
aa(lp2827
F0.5306124285714285
aF0.0
aF22.888889000000002
atp2828
sS'5104'
p2829
((lp2830
(lp2831
F-0.0
aa(lp2832
F90.0
aa(lp2833
F100.0
aa(lp2834
F0.0
aF0.0
aF0.0
atp2835
sS'5105'
p2836
((lp2837
(lp2838
F90.0
aa(lp2839
F80.0
aa(lp2840
F90.0
aa(lp2841
F0.0
aF0.0
aI0
atp2842
sS'5719'
p2843
((lp2844
(lp2845
F82.029
aa(lp2846
F0.0
aa(lp2847
F42.473
aa(lp2848
F95.88321781159388
aF0.0
aF93.88368598924737
atp2849
sS'5718'
p2850
((lp2851
(lp2852
F88.699
aa(lp2853
F38.75
aa(lp2854
F100.0
aa(lp2855
F19.446096934959357
aF285.9375
aF0.0
atp2856
sS'5717'
p2857
((lp2858
(lp2859
F95.5
aa(lp2860
F0.0
aa(lp2861
F80.0
aa(lp2862
F23.75
aF0.0
aF0.0
atp2863
sS'5716'
p2864
((lp2865
(lp2866
F80.0
aa(lp2867
F90.0
aa(lp2868
F80.0
aa(lp2869
F0.0
aF0.0
aI0
atp2870
sS'5715'
p2871
((lp2872
(lp2873
F90.0
aa(lp2874
F80.0
aa(lp2875
F90.0
aa(lp2876
F0.0
aF0.0
aI0
atp2877
sS'5714'
p2878
((lp2879
(lp2880
F90.0
aa(lp2881
F80.0
aa(lp2882
F100.0
aa(lp2883
F0.0
aF0.0
aF0.0
atp2884
sS'5713'
p2885
((lp2886
(lp2887
F90.0
aa(lp2888
F90.0
aa(lp2889
F90.0
aa(lp2890
F0.0
aI0
aI0
atp2891
sS'5712'
p2892
((lp2893
(lp2894
F77.5
aa(lp2895
F39.6
aa(lp2896
F0.0
aa(lp2897
F93.75
aF99.84
aF0.0
atp2898
sS'5711'
p2899
((lp2900
(lp2901
F79.88
aa(lp2902
F0.0
aa(lp2903
F43.846
aa(lp2904
F92.75656867469861
aF0.0
aF85.20710061538453
atp2905
sS'5710'
p2906
((lp2907
(lp2908
F88.667
aa(lp2909
F3.678
aa(lp2910
F46.053
aa(lp2911
F68.99145310256432
aF34.74699434482762
aF87.04986163157896
atp2912
sS'5862'
p2913
((lp2914
(lp2915
F-0.0
aa(lp2916
F83.942
aa(lp2917
F37.881
aa(lp2918
F0.0
aF81.97172914522831
aF98.9011779491527
atp2919
sS'5788'
p2920
((lp2921
(lp2922
F90.0
aa(lp2923
F90.0
aa(lp2924
F90.0
aa(lp2925
F0.0
aI0
aI0
atp2926
sS'5955'
p2927
((lp2928
(lp2929
F0.0
aa(lp2930
F83.846
aa(lp2931
F40.667
aa(lp2932
F0.0
aF69.82248523076925
aF99.55555566666666
atp2933
sS'5216'
p2934
((lp2935
(lp2936
F-0.0
aa(lp2937
F82.295
aa(lp2938
F40.286
aa(lp2939
F0.0
aF93.09325450819664
aF99.91836742857147
atp2940
sS'5217'
p2941
((lp2942
(lp2943
F80.0
aa(lp2944
F90.769
aa(lp2945
F66.5
aa(lp2946
F0.0
aF7.100591769230769
aF12.25
atp2947
sS'5214'
p2948
((lp2949
(lp2950
F0.0
aa(lp2951
F82.308
aa(lp2952
F40.0
aa(lp2953
F0.0
aF33.13609476923078
aF100.0
atp2954
sS'5215'
p2955
((lp2956
(lp2957
F44.0
aa(lp2958
F70.0
aa(lp2959
F90.0
aa(lp2960
F84.0
aF0.0
aF0.0
atp2961
sS'5212'
p2962
((lp2963
(lp2964
F89.167
aa(lp2965
F30.0
aa(lp2966
F0.0
aa(lp2967
F10.416666777777788
aF0.0
aF0.0
atp2968
sS'5213'
p2969
((lp2970
(lp2971
F90.0
aa(lp2972
F80.0
aa(lp2973
F90.0
aa(lp2974
F0.0
aF0.0
aI0
atp2975
sS'5210'
p2976
((lp2977
(lp2978
F88.609
aa(lp2979
F0.0
aa(lp2980
F44.026
aa(lp2981
F24.730938971014552
aF0.0
aF83.79153314285702
atp2982
sS'5211'
p2983
((lp2984
(lp2985
F0.222
aa(lp2986
F100.0
aa(lp2987
F86.421
aa(lp2988
F2.1728395555555555
aF0.0
aF24.243767315789466
atp2989
sS'5218'
p2990
((lp2991
(lp2992
F91.25
aa(lp2993
F30.0
aa(lp2994
F50.0
aa(lp2995
F10.9375
aF0.0
aF0.0
atp2996
sS'5219'
p2997
((lp2998
(lp2999
F50.0
aa(lp3000
F10.0
aa(lp3001
F20.0
aa(lp3002
F40.0
aF0.0
aF0.0
atp3003
sS'5199'
p3004
((lp3005
(lp3006
F26.667
aa(lp3007
F86.897
aa(lp3008
F50.0
aa(lp3009
F88.88888899999999
aF42.09274693103447
aF0.0
atp3010
sS'5198'
p3011
((lp3012
(lp3013
F90.231
aa(lp3014
F0.0
aa(lp3015
F100.0
aa(lp3016
F0.6390533076923075
aF0.0
aF0.0
atp3017
sS'5195'
p3018
((lp3019
(lp3020
F75.213
aa(lp3021
F0.0
aa(lp3022
F39.655
aa(lp3023
F76.01856048936165
aF0.0
aF99.88109396551727
atp3024
sS'5194'
p3025
((lp3026
(lp3027
F78.615
aa(lp3028
F49.95
aa(lp3029
F26.729
aa(lp3030
F109.75215629770886
aF2.9975000000000307
aF83.2730992914576
atp3031
sS'5197'
p3032
((lp3033
(lp3034
F-0.0
aa(lp3035
F94.857
aa(lp3036
F50.783
aa(lp3037
F0.0
aF59.83673471428569
aF8.257089
atp3038
sS'5196'
p3039
((lp3040
(lp3041
F90.0
aa(lp3042
F80.0
aa(lp3043
F90.0
aa(lp3044
F0.0
aF0.0
aI0
atp3045
sS'5191'
p3046
((lp3047
(lp3048
F90.0
aa(lp3049
F70.0
aa(lp3050
F43.333
aa(lp3051
F0.0
aF0.0
aF88.88888899999999
atp3052
sS'5190'
p3053
((lp3054
(lp3055
F38.571
aa(lp3056
F83.636
aa(lp3057
F-0.0
aa(lp3058
F97.95918385714288
aF77.68595054545455
aF0.0
atp3059
sS'5193'
p3060
((lp3061
(lp3062
F90.0
aa(lp3063
F78.667
aa(lp3064
F50.0
aa(lp3065
F0.0
aF11.555555666666665
aF0.0
atp3066
sS'5192'
p3067
((lp3068
(lp3069
F90.0
aa(lp3070
F80.0
aa(lp3071
F90.0
aa(lp3072
F0.0
aF0.0
aI0
atp3073
sS'5809'
p3074
((lp3075
(lp3076
F47.238
aa(lp3077
F74.528
aa(lp3078
F-0.0
aa(lp3079
F47.61350333503865
aF70.06051984905686
aF0.0
atp3080
sS'5808'
p3081
((lp3082
(lp3083
F84.0
aa(lp3084
F0.0
aa(lp3085
F30.0
aa(lp3086
F64.0
aF0.0
aF0.0
atp3087
sS'5803'
p3088
((lp3089
(lp3090
F90.0
aa(lp3091
F90.0
aa(lp3092
F90.0
aa(lp3093
F0.0
aI0
aI0
atp3094
sS'5802'
p3095
((lp3096
(lp3097
F90.0
aa(lp3098
F80.0
aa(lp3099
F100.0
aa(lp3100
F0.0
aF0.0
aF0.0
atp3101
sS'5801'
p3102
((lp3103
(lp3104
F74.2
aa(lp3105
F50.0
aa(lp3106
F26.471
aa(lp3107
F52.36
aF0.0
aF93.42560570588236
atp3108
sS'5800'
p3109
((lp3110
(lp3111
F70.145
aa(lp3112
F90.0
aa(lp3113
F44.194
aa(lp3114
F1.4282713768115927
aF0.0
aF179.18834567741936
atp3115
sS'5807'
p3116
((lp3117
(lp3118
F47.376
aa(lp3119
F82.87
aa(lp3120
F1.139
aa(lp3121
F97.18474251583677
aF136.6064067264578
aF19.140624167420274
atp3122
sS'5806'
p3123
((lp3124
(lp3125
F42.0
aa(lp3126
F82.92
aa(lp3127
F0.0
aa(lp3128
F96.0
aF80.62571034482767
aF0.0
atp3129
sS'5805'
p3130
((lp3131
(lp3132
F90.0
aa(lp3133
F80.0
aa(lp3134
F80.0
aa(lp3135
F0.0
aF0.0
aI0
atp3136
sS'5804'
p3137
((lp3138
(lp3139
F90.0
aa(lp3140
F80.0
aa(lp3141
F90.0
aa(lp3142
F0.0
aF0.0
aI0
atp3143
sS'5957'
p3144
((lp3145
(lp3146
F90.0
aa(lp3147
F0.0
aa(lp3148
F80.0
aa(lp3149
F0.0
aF0.0
aF0.0
atp3150
sS'5362'
p3151
((lp3152
(lp3153
F90.0
aa(lp3154
F80.0
aa(lp3155
F90.0
aa(lp3156
F0.0
aF0.0
aI0
atp3157
sS'5363'
p3158
((lp3159
(lp3160
F81.667
aa(lp3161
F30.0
aa(lp3162
F50.0
aa(lp3163
F80.55555566666668
aF0.0
aF0.0
atp3164
sS'5360'
p3165
((lp3166
(lp3167
F80.0
aa(lp3168
F90.0
aa(lp3169
F90.0
aa(lp3170
F0.0
aF0.0
aI0
atp3171
sS'5361'
p3172
((lp3173
(lp3174
F98.554
aa(lp3175
F4.779
aa(lp3176
F73.355
aa(lp3177
F11.53356464864872
aF103.47993715384612
aF141.64828306451622
atp3178
sS'5366'
p3179
((lp3180
(lp3181
F76.744
aa(lp3182
F23.78
aa(lp3183
F50.0
aa(lp3184
F89.39967553488376
aF147.90303414634087
aF0.0
atp3185
sS'5367'
p3186
((lp3187
(lp3188
F71.333
aa(lp3189
F90.0
aa(lp3190
F50.0
aa(lp3191
F11.555555666666661
aF0.0
aF0.0
atp3192
sS'5364'
p3193
((lp3194
(lp3195
F50.0
aa(lp3196
F0.0
aa(lp3197
F94.667
aa(lp3198
F0.0
aF0.0
aF24.888888999999992
atp3199
sS'5365'
p3200
((lp3201
(lp3202
F58.0
aa(lp3203
F88.0
aa(lp3204
F30.0
aa(lp3205
F96.0
aF16.0
aF0.0
atp3206
sS'5443'
p3207
((lp3208
(lp3209
F2.143
aa(lp3210
F89.043
aa(lp3211
F67.143
aa(lp3212
F59.693877571428565
aF8.657763893617016
aF48.979591857142864
atp3213
sS'5442'
p3214
((lp3215
(lp3216
F-0.0
aa(lp3217
F76.0
aa(lp3218
F50.0
aa(lp3219
F0.0
aF24.0
aF0.0
atp3220
sS'5368'
p3221
((lp3222
(lp3223
F90.0
aa(lp3224
F60.769
aa(lp3225
F0.0
aa(lp3226
F0.0
aF99.40828407692308
aF0.0
atp3227
sS'5369'
p3228
((lp3229
(lp3230
F94.667
aa(lp3231
F5.0
aa(lp3232
F74.828
aa(lp3233
F24.888889000000013
aF65.0
aF52.55648055172413
atp3234
sS'5447'
p3235
((lp3236
(lp3237
F0.0
aa(lp3238
F82.188
aa(lp3239
F38.462
aa(lp3240
F0.0
aF79.58984399999999
aF97.63313630769234
atp3241
sS'5446'
p3242
((lp3243
(lp3244
F90.0
aa(lp3245
F80.0
aa(lp3246
F90.0
aa(lp3247
F0.0
aF0.0
aI0
atp3248
sS'5445'
p3249
((lp3250
(lp3251
F90.0
aa(lp3252
F80.0
aa(lp3253
F90.0
aa(lp3254
F0.0
aF0.0
aI0
atp3255
sS'5444'
p3256
((lp3257
(lp3258
F80.0
aa(lp3259
F90.0
aa(lp3260
F90.0
aa(lp3261
F0.0
aF0.0
aI0
atp3262
sS'5937'
p3263
((lp3264
(lp3265
F80.0
aa(lp3266
F90.0
aa(lp3267
F90.0
aa(lp3268
F0.0
aF0.0
aI0
atp3269
sS'5936'
p3270
((lp3271
(lp3272
F70.0
aa(lp3273
F0.0
aa(lp3274
F90.0
aa(lp3275
F0.0
aF0.0
aF0.0
atp3276
sS'5935'
p3277
((lp3278
(lp3279
F1.528
aa(lp3280
F64.747
aa(lp3281
F90.0
aa(lp3282
F38.86049828571435
aF77.4614837474748
aF0.0
atp3283
sS'5893'
p3284
((lp3285
(lp3286
F80.0
aa(lp3287
F47.333
aa(lp3288
F90.0
aa(lp3289
F0.0
aF14.222222333333335
aF0.0
atp3290
sS'5933'
p3291
((lp3292
(lp3293
F90.0
aa(lp3294
F80.0
aa(lp3295
F80.0
aa(lp3296
F0.0
aF0.0
aI0
atp3297
sS'5932'
p3298
((lp3299
(lp3300
F90.0
aa(lp3301
F90.0
aa(lp3302
F90.0
aa(lp3303
F0.0
aI0
aI0
atp3304
sS'5931'
p3305
((lp3306
(lp3307
F90.0
aa(lp3308
F90.0
aa(lp3309
F90.0
aa(lp3310
F0.0
aI0
aI0
atp3311
sS'5930'
p3312
((lp3313
(lp3314
F89.419
aa(lp3315
F1.304
aa(lp3316
F65.583
aa(lp3317
F5.4759330930232615
aF37.42911165217392
aF68.83209758895713
atp3318
sS'5939'
p3319
((lp3320
(lp3321
F40.909
aa(lp3322
F90.0
aa(lp3323
F75.556
aa(lp3324
F99.17355372727273
aF0.0
aF24.691358222222224
atp3325
sS'5938'
p3326
((lp3327
(lp3328
F39.801
aa(lp3329
F84.571
aa(lp3330
F0.0
aa(lp3331
F99.96052815231809
aF72.08905398701333
aF0.0
atp3332
sS'5959'
p3333
((lp3334
(lp3335
F79.618
aa(lp3336
F93.356
aa(lp3337
F28.0
aa(lp3338
F1.647923999999999
aF22.09580266666669
aF0.0
atp3339
sS'5762'
p3340
((lp3341
(lp3342
F90.0
aa(lp3343
F90.0
aa(lp3344
F90.0
aa(lp3345
F0.0
aI0
aI0
atp3346
sS'5961'
p3347
((lp3348
(lp3349
F90.0
aa(lp3350
F80.0
aa(lp3351
F90.0
aa(lp3352
F0.0
aF0.0
aI0
atp3353
sS'5150'
p3354
((lp3355
(lp3356
F90.0
aa(lp3357
F0.0
aa(lp3358
F100.0
aa(lp3359
F0.0
aF0.0
aF0.0
atp3360
sS'5898'
p3361
((lp3362
(lp3363
F90.0
aa(lp3364
F80.0
aa(lp3365
F80.0
aa(lp3366
F0.0
aF0.0
aI0
atp3367
sS'5508'
p3368
((lp3369
(lp3370
F80.0
aa(lp3371
F90.0
aa(lp3372
F90.0
aa(lp3373
F0.0
aF0.0
aI0
atp3374
sS'5509'
p3375
((lp3376
(lp3377
F100.0
aa(lp3378
F80.0
aa(lp3379
F90.0
aa(lp3380
F0.0
aF0.0
aF0.0
atp3381
sS'5506'
p3382
((lp3383
(lp3384
F88.281
aa(lp3385
F5.0
aa(lp3386
F68.431
aa(lp3387
F14.233398500000016
aF125.0
aF28.911957078431378
atp3388
sS'5507'
p3389
((lp3390
(lp3391
F91.176
aa(lp3392
F2.222
aa(lp3393
F32.222
aa(lp3394
F88.81199560784313
aF17.28395066666666
aF172.83950622222227
atp3395
sS'5504'
p3396
((lp3397
(lp3398
F90.0
aa(lp3399
F0.0
aa(lp3400
F78.333
aa(lp3401
F0.0
aF0.0
aF13.888889
atp3402
sS'5505'
p3403
((lp3404
(lp3405
F90.0
aa(lp3406
F90.0
aa(lp3407
F90.0
aa(lp3408
F0.0
aI0
aI0
atp3409
sS'5502'
p3410
((lp3411
(lp3412
F90.0
aa(lp3413
F80.0
aa(lp3414
F90.0
aa(lp3415
F0.0
aF0.0
aI0
atp3416
sS'5503'
p3417
((lp3418
(lp3419
F97.419
aa(lp3420
F80.0
aa(lp3421
F0.0
aa(lp3422
F19.14672229032258
aF0.0
aF0.0
atp3423
sS'5500'
p3424
((lp3425
(lp3426
F45.0
aa(lp3427
F90.0
aa(lp3428
F70.0
aa(lp3429
F75.0
aF0.0
aF0.0
atp3430
sS'5958'
p3431
((lp3432
(lp3433
F90.0
aa(lp3434
F80.0
aa(lp3435
F90.0
aa(lp3436
F0.0
aF0.0
aI0
atp3437
sS'5989'
p3438
((lp3439
(lp3440
F-0.0
aa(lp3441
F81.803
aa(lp3442
F37.273
aa(lp3443
F0.0
aF78.71539916393432
aF92.56198354545458
atp3444
sS'6000'
p3445
((lp3446
(lp3447
F90.0
aa(lp3448
F80.0
aa(lp3449
F80.0
aa(lp3450
F0.0
aF0.0
aI0
atp3451
sS'5968'
p3452
((lp3453
(lp3454
F90.0
aa(lp3455
F80.0
aa(lp3456
F90.0
aa(lp3457
F0.0
aF0.0
aI0
atp3458
sS'5065'
p3459
((lp3460
(lp3461
F20.357
aa(lp3462
F76.0
aa(lp3463
F50.0
aa(lp3464
F196.30102042857146
aF80.47058823529412
aF0.0
atp3465
sS'5064'
p3466
((lp3467
(lp3468
F70.338
aa(lp3469
F90.0
aa(lp3470
F47.805
aa(lp3471
F3.264243999999992
aF0.0
aF75.66924451219514
atp3472
sS'5067'
p3473
((lp3474
(lp3475
F88.103
aa(lp3476
F0.0
aa(lp3477
F50.0
aa(lp3478
F25.713436586206953
aF0.0
aF0.0
atp3479
sS'5066'
p3480
((lp3481
(lp3482
F86.027
aa(lp3483
F40.909
aa(lp3484
F0.0
aa(lp3485
F56.82116735616435
aF99.17355372727273
aF0.0
atp3486
sS'5061'
p3487
((lp3488
(lp3489
F90.0
aa(lp3490
F90.0
aa(lp3491
F90.0
aa(lp3492
F0.0
aI0
aI0
atp3493
sS'5060'
p3494
((lp3495
(lp3496
F99.788
aa(lp3497
F0.912
aa(lp3498
F51.558
aa(lp3499
F2.1122766063249623
aF10.956897456998371
aF68.47917795348836
atp3500
sS'5148'
p3501
((lp3502
(lp3503
F0.515
aa(lp3504
F92.49
aa(lp3505
F40.0
aa(lp3506
F4.882136764705874
aF30.457952348993334
aF100.0
atp3507
sS'5149'
p3508
((lp3509
(lp3510
F80.0
aa(lp3511
F90.0
aa(lp3512
F90.0
aa(lp3513
F0.0
aF0.0
aI0
atp3514
sS'5146'
p3515
((lp3516
(lp3517
F30.0
aa(lp3518
F71.905
aa(lp3519
F50.0
aa(lp3520
F0.0
aF34.46712023809521
aF0.0
atp3521
sS'5147'
p3522
((lp3523
(lp3524
F82.479
aa(lp3525
F0.0
aa(lp3526
F44.894
aa(lp3527
F93.02643273553727
aF0.0
aF76.05251259574474
atp3528
sS'5144'
p3529
((lp3530
(lp3531
F83.729
aa(lp3532
F38.0
aa(lp3533
F-0.0
aa(lp3534
F87.7908647288135
aF96.0
aF0.0
atp3535
sS'5145'
p3536
((lp3537
(lp3538
F0.0
aa(lp3539
F81.714
aa(lp3540
F36.0
aa(lp3541
F0.0
aF97.06122457142865
aF84.0
atp3542
sS'5142'
p3543
((lp3544
(lp3545
F80.0
aa(lp3546
F2.0
aa(lp3547
F90.0
aa(lp3548
F0.0
aF0.0
aF0.0
atp3549
sS'5143'
p3550
((lp3551
(lp3552
F100.0
aa(lp3553
F70.0
aa(lp3554
F90.0
aa(lp3555
F0.0
aF0.0
aF0.0
atp3556
sS'5140'
p3557
((lp3558
(lp3559
F83.0
aa(lp3560
F36.486
aa(lp3561
F0.0
aa(lp3562
F87.0
aF87.65522302702708
aF0.0
atp3563
sS'5141'
p3564
((lp3565
(lp3566
F90.0
aa(lp3567
F90.0
aa(lp3568
F90.0
aa(lp3569
F0.0
aI0
aI0
atp3570
sS'5753'
p3571
((lp3572
(lp3573
F5.816
aa(lp3574
F91.955
aa(lp3575
F60.444
aa(lp3576
F77.39483559183684
aF56.34382951127824
aF119.80246933333336
atp3577
sS'5752'
p3578
((lp3579
(lp3580
F90.0
aa(lp3581
F80.0
aa(lp3582
F90.0
aa(lp3583
F0.0
aF0.0
aI0
atp3584
sS'5751'
p3585
((lp3586
(lp3587
F94.259
aa(lp3588
F0.0
aa(lp3589
F82.083
aa(lp3590
F16.63648840740741
aF0.0
aF6.076389
atp3591
sS'5750'
p3592
((lp3593
(lp3594
F90.0
aa(lp3595
F80.0
aa(lp3596
F90.0
aa(lp3597
F0.0
aF0.0
aI0
atp3598
sS'5757'
p3599
((lp3600
(lp3601
F93.623
aa(lp3602
F0.968
aa(lp3603
F54.167
aa(lp3604
F68.52996506557372
aF15.192507870967743
aF164.30555566666666
atp3605
sS'5756'
p3606
((lp3607
(lp3608
F80.0
aa(lp3609
F30.0
aa(lp3610
F90.0
aa(lp3611
F0.0
aF0.0
aF0.0
atp3612
sS'5755'
p3613
((lp3614
(lp3615
F72.5
aa(lp3616
F90.0
aa(lp3617
F50.0
aa(lp3618
F18.75
aF0.0
aF0.0
atp3619
sS'5754'
p3620
((lp3621
(lp3622
F0.0
aa(lp3623
F79.091
aa(lp3624
F35.455
aa(lp3625
F0.0
aF26.446280999999995
aF79.33884318181819
atp3626
sS'5969'
p3627
((lp3628
(lp3629
F90.0
aa(lp3630
F80.0
aa(lp3631
F90.0
aa(lp3632
F0.0
aF0.0
aI0
atp3633
sS'5759'
p3634
((lp3635
(lp3636
F90.0
aa(lp3637
F90.0
aa(lp3638
F90.0
aa(lp3639
F0.0
aI0
aI0
atp3640
sS'5758'
p3641
((lp3642
(lp3643
F76.49
aa(lp3644
F0.628
aa(lp3645
F48.293
aa(lp3646
F86.79425322580663
aF11.977153230769316
aF96.2313414471302
atp3647
sS'5341'
p3648
((lp3649
(lp3650
F90.0
aa(lp3651
F80.0
aa(lp3652
F50.0
aa(lp3653
F0.0
aF0.0
aF0.0
atp3654
sS'5591'
p3655
((lp3656
(lp3657
F89.821
aa(lp3658
F9.375
aa(lp3659
F64.237
aa(lp3660
F1.7538267142857134
aF193.359375
aF82.04538933898316
atp3661
sS'5590'
p3662
((lp3663
(lp3664
F63.125
aa(lp3665
F21.111
aa(lp3666
F90.0
aa(lp3667
F90.234375
aF132.09876544444444
aF0.0
atp3668
sS'5618'
p3669
((lp3670
(lp3671
F71.864
aa(lp3672
F90.0
aa(lp3673
F48.333
aa(lp3674
F15.168055322033918
aF0.0
aF30.55555566666666
atp3675
sS'5619'
p3676
((lp3677
(lp3678
F0.0
aa(lp3679
F90.0
aa(lp3680
F70.0
aa(lp3681
F0.0
aF0.0
aF0.0
atp3682
sS'5595'
p3683
((lp3684
(lp3685
F90.0
aa(lp3686
F80.0
aa(lp3687
F90.0
aa(lp3688
F0.0
aF0.0
aI0
atp3689
sS'5594'
p3690
((lp3691
(lp3692
F76.667
aa(lp3693
F91.318
aa(lp3694
F50.0
aa(lp3695
F22.222222333333335
aF11.035124
aF0.0
atp3696
sS'5597'
p3697
((lp3698
(lp3699
F62.708
aa(lp3700
F91.111
aa(lp3701
F17.143
aa(lp3702
F97.87326399999999
aF9.876543222222226
aF220.40816328571427
atp3703
sS'5596'
p3704
((lp3705
(lp3706
F90.0
aa(lp3707
F80.0
aa(lp3708
F90.0
aa(lp3709
F0.0
aF0.0
aI0
atp3710
sS'5612'
p3711
((lp3712
(lp3713
F-0.0
aa(lp3714
F89.344
aa(lp3715
F46.0
aa(lp3716
F0.0
aF12.684762229508198
aF64.0
atp3717
sS'5613'
p3718
((lp3719
(lp3720
F90.0
aa(lp3721
F80.0
aa(lp3722
F80.0
aa(lp3723
F0.0
aF0.0
aI0
atp3724
sS'5610'
p3725
((lp3726
(lp3727
F90.0
aa(lp3728
F90.0
aa(lp3729
F90.0
aa(lp3730
F0.0
aI0
aI0
atp3731
sS'5611'
p3732
((lp3733
(lp3734
F90.0
aa(lp3735
F80.0
aa(lp3736
F90.0
aa(lp3737
F0.0
aF0.0
aI0
atp3738
sS'5616'
p3739
((lp3740
(lp3741
F89.365
aa(lp3742
F1.304
aa(lp3743
F66.0
aa(lp3744
F5.946082142857151
aF37.42911165217392
aF64.0
atp3745
sS'5617'
p3746
((lp3747
(lp3748
F100.0
aa(lp3749
F-0.0
aa(lp3750
F80.0
aa(lp3751
F0.0
aF0.0
aF0.0
atp3752
sS'5614'
p3753
((lp3754
(lp3755
F36.551
aa(lp3756
F-0.0
aa(lp3757
F78.254
aa(lp3758
F88.10110622648095
aF0.0
aF96.7370504827585
atp3759
sS'5615'
p3760
((lp3761
(lp3762
F80.0
aa(lp3763
F90.0
aa(lp3764
F80.0
aa(lp3765
F0.0
aF0.0
aI0
atp3766
sS'5743'
p3767
((lp3768
(lp3769
F38.571
aa(lp3770
F0.0
aa(lp3771
F77.553
aa(lp3772
F97.95918385714258
aF0.0
aF90.82163878723397
atp3773
sS'5745'
p3774
((lp3775
(lp3776
F90.0
aa(lp3777
F80.0
aa(lp3778
F90.0
aa(lp3779
F0.0
aF0.0
aI0
atp3780
sS'5393'
p3781
((lp3782
(lp3783
F-0.0
aa(lp3784
F89.733
aa(lp3785
F38.889
aa(lp3786
F0.0
aF5.262222333333332
aF98.76543211111112
atp3787
sS'5392'
p3788
((lp3789
(lp3790
F90.036
aa(lp3791
F84.833
aa(lp3792
F80.0
aa(lp3793
F0.32015314285714275
aF1.4722223333333335
aF1.0
atp3794
sS'5391'
p3795
((lp3796
(lp3797
F90.0
aa(lp3798
F80.0
aa(lp3799
F80.0
aa(lp3800
F0.0
aF0.0
aI0
atp3801
sS'5390'
p3802
((lp3803
(lp3804
F90.0
aa(lp3805
F43.333
aa(lp3806
F70.0
aa(lp3807
F0.0
aF88.88888899999999
aF0.0
atp3808
sS'5397'
p3809
((lp3810
(lp3811
F90.0
aa(lp3812
F80.0
aa(lp3813
F80.0
aa(lp3814
F0.0
aF0.0
aI0
atp3815
sS'5396'
p3816
((lp3817
(lp3818
F90.0
aa(lp3819
F90.0
aa(lp3820
F90.0
aa(lp3821
F0.0
aI0
aI0
atp3822
sS'5395'
p3823
((lp3824
(lp3825
F0.0
aa(lp3826
F92.5
aa(lp3827
F80.0
aa(lp3828
F0.0
aF18.75
aF0.0
atp3829
sS'5394'
p3830
((lp3831
(lp3832
F40.526
aa(lp3833
F84.565
aa(lp3834
F0.0
aa(lp3835
F99.72299178947367
aF75.5356018115944
aF0.0
atp3836
sS'5348'
p3837
((lp3838
(lp3839
F89.7
aa(lp3840
F46.486
aa(lp3841
F70.0
aa(lp3842
F2.9099999999999966
aF98.4660338378378
aF0.0
atp3843
sS'5399'
p3844
((lp3845
(lp3846
F80.0
aa(lp3847
F90.0
aa(lp3848
F100.0
aa(lp3849
F0.0
aF0.0
aF0.0
atp3850
sS'5398'
p3851
((lp3852
(lp3853
F80.0
aa(lp3854
F90.0
aa(lp3855
F100.0
aa(lp3856
F0.0
aF0.0
aF0.0
atp3857
sS'5349'
p3858
((lp3859
(lp3860
F60.526
aa(lp3861
F90.0
aa(lp3862
F22.5
aa(lp3863
F99.72299178947372
aF0.0
aF168.75
atp3864
sS'5748'
p3865
((lp3866
(lp3867
F51.833
aa(lp3868
F89.254
aa(lp3869
F1.51
aa(lp3870
F114.8531747142857
aF49.45930965079365
aF28.865292307692275
atp3871
sS'5749'
p3872
((lp3873
(lp3874
F85.517
aa(lp3875
F0.0
aa(lp3876
F42.542
aa(lp3877
F69.56004762068969
aF0.0
aF93.53634027118638
atp3878
sS'5098'
p3879
((lp3880
(lp3881
F90.0
aa(lp3882
F80.0
aa(lp3883
F90.0
aa(lp3884
F0.0
aF0.0
aI0
atp3885
sS'5099'
p3886
((lp3887
(lp3888
F90.0
aa(lp3889
F2.791
aa(lp3890
F66.0
aa(lp3891
F0.0
aF75.93293681395352
aF64.0
atp3892
sS'5042'
p3893
((lp3894
(lp3895
F75.684
aa(lp3896
F0.0
aa(lp3897
F41.014
aa(lp3898
F81.37396126315795
aF0.0
aF98.97080469565208
atp3899
sS'5090'
p3900
((lp3901
(lp3902
F90.0
aa(lp3903
F80.0
aa(lp3904
F90.0
aa(lp3905
F0.0
aF0.0
aI0
atp3906
sS'5091'
p3907
((lp3908
(lp3909
F89.696
aa(lp3910
F0.0
aa(lp3911
F50.0
aa(lp3912
F3.8204159999999754
aF0.0
aF0.0
atp3913
sS'5092'
p3914
((lp3915
(lp3916
F74.118
aa(lp3917
F9.0
aa(lp3918
F90.0
aa(lp3919
F59.51557105882352
aF189.0
aF0.0
atp3920
sS'5093'
p3921
((lp3922
(lp3923
F80.0
aa(lp3924
F90.0
aa(lp3925
F80.0
aa(lp3926
F0.0
aF0.0
aI0
atp3927
sS'5094'
p3928
((lp3929
(lp3930
F0.0
aa(lp3931
F81.915
aa(lp3932
F38.182
aa(lp3933
F0.0
aF92.0778632978724
aF96.69421490909089
atp3934
sS'5095'
p3935
((lp3936
(lp3937
F90.0
aa(lp3938
F80.0
aa(lp3939
F90.0
aa(lp3940
F0.0
aF0.0
aI0
atp3941
sS'5096'
p3942
((lp3943
(lp3944
F80.0
aa(lp3945
F90.0
aa(lp3946
F90.0
aa(lp3947
F0.0
aF0.0
aI0
atp3948
sS'5097'
p3949
((lp3950
(lp3951
F0.0
aa(lp3952
F74.194
aa(lp3953
F43.333
aa(lp3954
F0.0
aF50.15608761290324
aF88.88888900000008
atp3955
sS'5689'
p3956
((lp3957
(lp3958
F90.0
aa(lp3959
F80.0
aa(lp3960
F90.0
aa(lp3961
F0.0
aF0.0
aI0
atp3962
sS'5688'
p3963
((lp3964
(lp3965
F86.5
aa(lp3966
F0.0
aa(lp3967
F67.5
aa(lp3968
F32.75
aF0.0
aF43.75
atp3969
sS'5685'
p3970
((lp3971
(lp3972
F98.333
aa(lp3973
F0.0
aa(lp3974
F65.0
aa(lp3975
F13.888889
aF0.0
aF25.0
atp3976
sS'5684'
p3977
((lp3978
(lp3979
F0.235
aa(lp3980
F88.367
aa(lp3981
F50.0
aa(lp3982
F1.9838524509803912
aF66.72219920408166
aF0.0
atp3983
sS'5687'
p3984
((lp3985
(lp3986
F61.302
aa(lp3987
F19.375
aa(lp3988
F88.698
aa(lp3989
F98.30587066666654
aF205.859375
aF11.327204000000041
atp3990
sS'5686'
p3991
((lp3992
(lp3993
F80.0
aa(lp3994
F90.0
aa(lp3995
F90.0
aa(lp3996
F0.0
aF0.0
aI0
atp3997
sS'5681'
p3998
((lp3999
(lp4000
F83.381
aa(lp4001
F0.0
aa(lp4002
F45.529
aa(lp4003
F87.14681936298932
aF0.0
aF69.42560570588246
atp4004
sS'5680'
p4005
((lp4006
(lp4007
F0.0
aa(lp4008
F90.0
aa(lp4009
F80.0
aa(lp4010
F0.0
aF0.0
aF0.0
atp4011
sS'5683'
p4012
((lp4013
(lp4014
F80.0
aa(lp4015
F90.0
aa(lp4016
F90.0
aa(lp4017
F0.0
aF0.0
aI0
atp4018
sS'5682'
p4019
((lp4020
(lp4021
F70.0
aa(lp4022
F90.0
aa(lp4023
F70.0
aa(lp4024
F0.0
aF0.0
aI0
atp4025
sS'5326'
p4026
((lp4027
(lp4028
F62.0
aa(lp4029
F-0.0
aa(lp4030
F89.13
aa(lp4031
F96.0
aF0.0
aF7.939508695652168
atp4032
sS'5327'
p4033
((lp4034
(lp4035
F0.0
aa(lp4036
F88.333
aa(lp4037
F62.0
aa(lp4038
F0.0
aF13.888889000000004
aF96.0
atp4039
sS'5324'
p4040
((lp4041
(lp4042
F90.0
aa(lp4043
F80.0
aa(lp4044
F90.0
aa(lp4045
F0.0
aF0.0
aI0
atp4046
sS'5325'
p4047
((lp4048
(lp4049
F90.0
aa(lp4050
F80.0
aa(lp4051
F100.0
aa(lp4052
F0.0
aF0.0
aF0.0
atp4053
sS'5322'
p4054
((lp4055
(lp4056
F88.693
aa(lp4057
F10.396
aa(lp4058
F66.485
aa(lp4059
F11.358299251256268
aF203.80354867326744
aF57.94674015151505
atp4060
sS'5323'
p4061
((lp4062
(lp4063
F90.13
aa(lp4064
F50.0
aa(lp4065
F80.0
aa(lp4066
F1.2818350649350623
aF0.0
aF0.0
atp4067
sS'5320'
p4068
((lp4069
(lp4070
F42.174
aa(lp4071
F75.116
aa(lp4072
F0.0
aa(lp4073
F95.27410208695646
aF76.14926995348839
aF0.0
atp4074
sS'5321'
p4075
((lp4076
(lp4077
F79.351
aa(lp4078
F20.769
aa(lp4079
F50.0
aa(lp4080
F52.825097103896184
aF191.71597638461543
aF0.0
atp4081
sS'5487'
p4082
((lp4083
(lp4084
F90.0
aa(lp4085
F80.0
aa(lp4086
F90.0
aa(lp4087
F0.0
aF0.0
aI0
atp4088
sS'5486'
p4089
((lp4090
(lp4091
F70.0
aa(lp4092
F90.0
aa(lp4093
F50.0
aa(lp4094
F0.0
aF0.0
aF0.0
atp4095
sS'5485'
p4096
((lp4097
(lp4098
F80.667
aa(lp4099
F0.0
aa(lp4100
F50.0
aa(lp4101
F99.5555556666667
aF0.0
aF0.0
atp4102
sS'5484'
p4103
((lp4104
(lp4105
F90.0
aa(lp4106
F0.0
aa(lp4107
F90.0
aa(lp4108
I0
aF0.0
aF0.0
atp4109
sS'5483'
p4110
((lp4111
(lp4112
F38.976
aa(lp4113
F-0.0
aa(lp4114
F87.394
aa(lp4115
F98.95219804724405
aF0.0
aF44.61912332394371
atp4116
sS'5482'
p4117
((lp4118
(lp4119
F90.0
aa(lp4120
F90.0
aa(lp4121
F90.0
aa(lp4122
F0.0
aI0
aI0
atp4123
sS'5328'
p4124
((lp4125
(lp4126
F90.0
aa(lp4127
F90.0
aa(lp4128
F90.0
aa(lp4129
F0.0
aI0
aI0
atp4130
sS'5329'
p4131
((lp4132
(lp4133
F82.457
aa(lp4134
F0.0
aa(lp4135
F39.342
aa(lp4136
F88.24816328571437
aF0.0
aF99.5671745263156
atp4137
sS'5779'
p4138
((lp4139
(lp4140
F13.684
aa(lp4141
F89.438
aa(lp4142
F53.565
aa(lp4143
F96.95290863157895
aF54.746094
aF104.59357282608698
atp4144
sS'5249'
p4145
((lp4146
(lp4147
F0.0
aa(lp4148
F76.522
aa(lp4149
F47.391
aa(lp4150
F0.0
aF95.51039704347832
aF45.36862013043477
atp4151
sS'5580'
p4152
((lp4153
(lp4154
F89.708
aa(lp4155
F65.0
aa(lp4156
F22.5
aa(lp4157
F2.8344610802919665
aF75.0
aF168.75
atp4158
sS'5298'
p4159
((lp4160
(lp4161
F44.054
aa(lp4162
F88.846
aa(lp4163
F70.0
aa(lp4164
F83.56464572972968
aF10.207100615384615
aF0.0
atp4165
sS'5778'
p4166
((lp4167
(lp4168
F90.0
aa(lp4169
F80.0
aa(lp4170
F90.0
aa(lp4171
F0.0
aF0.0
aI0
atp4172
sS'5245'
p4173
((lp4174
(lp4175
F74.0
aa(lp4176
F2.927
aa(lp4177
F96.0
aa(lp4178
F147.76470588235293
aF35.33610948780486
aF24.0
atp4179
sS'5244'
p4180
((lp4181
(lp4182
F8.387
aa(lp4183
F68.574
aa(lp4184
F94.738
aa(lp4185
F168.36628512903235
aF88.93781568804135
aF25.263978538878803
atp4186
sS'5247'
p4187
((lp4188
(lp4189
F90.0
aa(lp4190
F80.0
aa(lp4191
F90.0
aa(lp4192
F0.0
aF0.0
aI0
atp4193
sS'5246'
p4194
((lp4195
(lp4196
F81.981
aa(lp4197
F0.059
aa(lp4198
F42.923
aa(lp4199
F138.8329906296297
aF0.2318339411764708
aF88.99408284615382
atp4200
sS'5241'
p4201
((lp4202
(lp4203
F90.0
aa(lp4204
F80.0
aa(lp4205
F90.0
aa(lp4206
F0.0
aF0.0
aI0
atp4207
sS'5240'
p4208
((lp4209
(lp4210
F80.0
aa(lp4211
F90.0
aa(lp4212
F80.0
aa(lp4213
F0.0
aF0.0
aI0
atp4214
sS'5243'
p4215
((lp4216
(lp4217
F90.0
aa(lp4218
F80.0
aa(lp4219
F80.0
aa(lp4220
F0.0
aF0.0
aI0
atp4221
sS'5242'
p4222
((lp4223
(lp4224
F0.036
aa(lp4225
F98.889
aa(lp4226
F51.0
aa(lp4227
F0.48469818712030877
aF14.320987666666674
aF229.0
atp4228
sS'5872'
p4229
((lp4230
(lp4231
F39.925
aa(lp4232
F84.024
aa(lp4233
F-0.0
aa(lp4234
F99.99434680451114
aF85.58523872189353
aF0.0
atp4235
sS'5873'
p4236
((lp4237
(lp4238
F88.077
aa(lp4239
F0.0
aa(lp4240
F30.0
aa(lp4241
F30.91715976923077
aF0.0
aF0.0
atp4242
sS'5979'
p4243
((lp4244
(lp4245
F90.0
aa(lp4246
F50.0
aa(lp4247
F75.0
aa(lp4248
F0.0
aF0.0
aF25.0
atp4249
sS'5871'
p4250
((lp4251
(lp4252
F88.305
aa(lp4253
F6.0
aa(lp4254
F64.253
aa(lp4255
F14.076414830508437
aF144.0
aF81.91306647126432
atp4256
sS'5876'
p4257
((lp4258
(lp4259
F76.25
aa(lp4260
F23.418
aa(lp4261
F50.0
aa(lp4262
F85.9375
aF154.13109134693886
aF0.0
atp4263
sS'5877'
p4264
((lp4265
(lp4266
F100.0
aa(lp4267
F90.0
aa(lp4268
F90.0
aa(lp4269
F0.0
aF0.0
aI0
atp4270
sS'5874'
p4271
((lp4272
(lp4273
F100.0
aa(lp4274
F80.0
aa(lp4275
F90.0
aa(lp4276
F0.0
aF0.0
aF0.0
atp4277
sS'5875'
p4278
((lp4279
(lp4280
F90.0
aa(lp4281
F0.0
aa(lp4282
F70.0
aa(lp4283
F0.0
aF0.0
aF0.0
atp4284
sS'5973'
p4285
((lp4286
(lp4287
F36.535
aa(lp4288
F77.733
aa(lp4289
F0.0
aa(lp4290
F87.9943828947375
aF74.5098703953491
aF0.0
atp4291
sS'5972'
p4292
((lp4293
(lp4294
F82.874
aa(lp4295
F0.0
aa(lp4296
F42.468
aa(lp4297
F91.314093687075
aF0.0
aF93.91128374026012
atp4298
sS'5878'
p4299
((lp4300
(lp4301
F90.317
aa(lp4302
F0.0
aa(lp4303
F80.0
aa(lp4304
F3.0738223333333288
aF0.0
aF0.0
atp4305
sS'5970'
p4306
((lp4307
(lp4308
F100.0
aa(lp4309
F-0.0
aa(lp4310
F88.333
aa(lp4311
F0.0
aF0.0
aF13.888889
atp4312
sS'5977'
p4313
((lp4314
(lp4315
F88.163
aa(lp4316
F-0.0
aa(lp4317
F41.579
aa(lp4318
F32.34069144897948
aF0.0
aF97.50692521052632
atp4319
sS'5976'
p4320
((lp4321
(lp4322
F82.344
aa(lp4323
F0.0
aa(lp4324
F40.909
aa(lp4325
F124.19433600000009
aF0.0
aF99.17355372727273
atp4326
sS'5975'
p4327
((lp4328
(lp4329
F42.268
aa(lp4330
F78.4
aa(lp4331
F-0.0
aa(lp4332
F94.8577273457244
aF94.24000000000021
aF0.0
atp4333
sS'5974'
p4334
((lp4335
(lp4336
F90.0
aa(lp4337
F0.0
aa(lp4338
F36.667
aa(lp4339
F0.0
aF0.0
aF88.88888899999999
atp4340
sS'5489'
p4341
((lp4342
(lp4343
F90.0
aa(lp4344
F90.0
aa(lp4345
F90.0
aa(lp4346
F0.0
aI0
aI0
atp4347
sS'5278'
p4348
((lp4349
(lp4350
F97.791
aa(lp4351
F10.13
aa(lp4352
F67.727
aa(lp4353
F17.212006581395457
aF181.93950869565217
aF108.47107445454549
atp4354
sS'5488'
p4355
((lp4356
(lp4357
F90.0
aa(lp4358
F50.0
aa(lp4359
F70.0
aa(lp4360
F0.0
aF0.0
aF0.0
atp4361
sS'5279'
p4362
((lp4363
(lp4364
F0.0
aa(lp4365
F81.975
aa(lp4366
F42.143
aa(lp4367
F0.0
aF114.61667438271616
aF109.6938775714286
atp4368
sS'5771'
p4369
((lp4370
(lp4371
F38.889
aa(lp4372
F89.167
aa(lp4373
F0.0
aa(lp4374
F98.76543211111112
aF13.19444455555557
aF0.0
atp4375
sS'5621'
p4376
((lp4377
(lp4378
F98.265
aa(lp4379
F0.0
aa(lp4380
F72.8
aa(lp4381
F13.582673979591831
aF0.0
aF151.36
atp4382
sS'5770'
p4383
((lp4384
(lp4385
F-0.0
aa(lp4386
F89.0
aa(lp4387
F100.0
aa(lp4388
F0.0
aF1.0
aF0.0
atp4389
sS'5620'
p4390
((lp4391
(lp4392
F90.0
aa(lp4393
F80.0
aa(lp4394
F80.0
aa(lp4395
F0.0
aF0.0
aI0
atp4396
sS'5432'
p4397
((lp4398
(lp4399
F90.0
aa(lp4400
F12.5
aa(lp4401
F66.0
aa(lp4402
F0.0
aF43.75
aF64.0
atp4403
sS'5433'
p4404
((lp4405
(lp4406
F89.646
aa(lp4407
F-0.0
aa(lp4408
F38.0
aa(lp4409
F53.72873266666671
aF0.0
aF96.0
atp4410
sS'5430'
p4411
((lp4412
(lp4413
F80.0
aa(lp4414
F90.0
aa(lp4415
F80.0
aa(lp4416
F0.0
aF0.0
aI0
atp4417
sS'5431'
p4418
((lp4419
(lp4420
F80.0
aa(lp4421
F90.0
aa(lp4422
F90.0
aa(lp4423
F0.0
aF0.0
aI0
atp4424
sS'5436'
p4425
((lp4426
(lp4427
F40.088
aa(lp4428
F0.0
aa(lp4429
F80.896
aa(lp4430
F99.99230540350632
aF0.0
aF98.80791444559445
atp4431
sS'5437'
p4432
((lp4433
(lp4434
F78.06
aa(lp4435
F-0.0
aa(lp4436
F49.143
aa(lp4437
F96.23524179104461
aF0.0
aF16.408163285714313
atp4438
sS'5434'
p4439
((lp4440
(lp4441
F94.358
aa(lp4442
F8.875
aa(lp4443
F75.667
aa(lp4444
F24.439719555555588
aF158.859375
aF70.44444455555558
atp4445
sS'5435'
p4446
((lp4447
(lp4448
F90.0
aa(lp4449
F0.0
aa(lp4450
F90.0
aa(lp4451
F0.0
aF0.0
aI0
atp4452
sS'5956'
p4453
((lp4454
(lp4455
F24.0
aa(lp4456
F77.053
aa(lp4457
F50.0
aa(lp4458
F144.0
aF83.94459847368412
aF0.0
atp4459
sS'5439'
p4460
((lp4461
(lp4462
F90.0
aa(lp4463
F10.0
aa(lp4464
F10.0
aa(lp4465
F0.0
aF0.0
aI0
atp4466
sS'5481'
p4467
((lp4468
(lp4469
F84.008
aa(lp4470
F47.696
aa(lp4471
F3.976
aa(lp4472
F121.07594341252505
aF112.4059602846361
aF46.14611596101382
atp4473
sS'5480'
p4474
((lp4475
(lp4476
F87.619
aa(lp4477
F18.75
aa(lp4478
F66.471
aa(lp4479
F18.140589571428578
aF210.9375
aF58.13148805882354
atp4480
sS'5029'
p4481
((lp4482
(lp4483
F80.0
aa(lp4484
F0.0
aa(lp4485
F90.0
aa(lp4486
F0.0
aF0.0
aF0.0
atp4487
sS'5028'
p4488
((lp4489
(lp4490
F0.0
aa(lp4491
F81.538
aa(lp4492
F40.0
aa(lp4493
F0.0
aF97.6331363076923
aF100.0
atp4494
sS'5021'
p4495
((lp4496
(lp4497
F89.623
aa(lp4498
F32.857
aa(lp4499
F-0.0
aa(lp4500
F7.404770509433971
aF48.97959185714285
aF0.0
atp4501
sS'5020'
p4502
((lp4503
(lp4504
F90.0
aa(lp4505
F80.0
aa(lp4506
F80.0
aa(lp4507
F0.0
aF0.0
aI0
atp4508
sS'5023'
p4509
((lp4510
(lp4511
F90.0
aa(lp4512
F80.0
aa(lp4513
F90.0
aa(lp4514
F0.0
aF0.0
aI0
atp4515
sS'5022'
p4516
((lp4517
(lp4518
F88.788
aa(lp4519
F39.302
aa(lp4520
F0.0
aa(lp4521
F22.773186424242493
aF99.51325051162793
aF0.0
atp4522
sS'5025'
p4523
((lp4524
(lp4525
F90.0
aa(lp4526
F80.0
aa(lp4527
F80.0
aa(lp4528
F0.0
aF0.0
aI0
atp4529
sS'5024'
p4530
((lp4531
(lp4532
F90.0
aa(lp4533
F80.0
aa(lp4534
F90.0
aa(lp4535
F0.0
aF0.0
aI0
atp4536
sS'5027'
p4537
((lp4538
(lp4539
F59.167
aa(lp4540
F3.333
aa(lp4541
F90.0
aa(lp4542
F99.30555566666663
aF88.88888899999999
aF0.0
atp4543
sS'5026'
p4544
((lp4545
(lp4546
F90.0
aa(lp4547
F50.0
aa(lp4548
F75.0
aa(lp4549
F0.0
aF0.0
aF25.0
atp4550
sS'5555'
p4551
((lp4552
(lp4553
F0.214
aa(lp4554
F90.843
aa(lp4555
F51.647
aa(lp4556
F2.525510285714282
aF52.79892350980394
aF76.22837370588238
atp4557
sS'5554'
p4558
((lp4559
(lp4560
F90.0
aa(lp4561
F80.0
aa(lp4562
F90.0
aa(lp4563
F0.0
aF0.0
aI0
atp4564
sS'5557'
p4565
((lp4566
(lp4567
F72.105
aa(lp4568
F0.0
aa(lp4569
F41.364
aa(lp4570
F37.673130263157894
aF0.0
aF98.14049600000003
atp4571
sS'5556'
p4572
((lp4573
(lp4574
F90.0
aa(lp4575
F80.0
aa(lp4576
F100.0
aa(lp4577
F0.0
aF0.0
aF0.0
atp4578
sS'5551'
p4579
((lp4580
(lp4581
F0.686
aa(lp4582
F90.01
aa(lp4583
F64.286
aa(lp4584
F20.12201972881302
aF0.09990000000000171
aF81.6326531428573
atp4585
sS'5550'
p4586
((lp4587
(lp4588
F94.667
aa(lp4589
F23.25
aa(lp4590
F74.833
aa(lp4591
F29.555555666666663
aF110.6875
aF63.47222233333333
atp4592
sS'5658'
p4593
((lp4594
(lp4595
F88.929
aa(lp4596
F0.0
aa(lp4597
F63.333
aa(lp4598
F9.56632671428572
aF0.0
aF88.88888899999999
atp4599
sS'5659'
p4600
((lp4601
(lp4602
F80.0
aa(lp4603
F90.0
aa(lp4604
F80.0
aa(lp4605
F0.0
aF0.0
aI0
atp4606
sS'5656'
p4607
((lp4608
(lp4609
F91.903
aa(lp4610
F2.5
aa(lp4611
F74.364
aa(lp4612
F15.119667064516133
aF68.75
aF81.3223141818182
atp4613
sS'5657'
p4614
((lp4615
(lp4616
F85.278
aa(lp4617
F67.5
aa(lp4618
F0.0
aa(lp4619
F24.922839555555555
aF43.75
aF0.0
atp4620
sS'5654'
p4621
((lp4622
(lp4623
F39.156
aa(lp4624
F80.897
aa(lp4625
F-0.0
aa(lp4626
F99.28691377777814
aF96.20672856521757
aF0.0
atp4627
sS'5655'
p4628
((lp4629
(lp4630
F0.008
aa(lp4631
F80.417
aa(lp4632
F39.624
aa(lp4633
F0.07911388123515058
aF99.82638899999982
aF99.85866923308258
atp4634
sS'5652'
p4635
((lp4636
(lp4637
F80.0
aa(lp4638
F90.0
aa(lp4639
F80.0
aa(lp4640
F0.0
aF0.0
aI0
atp4641
sS'5653'
p4642
((lp4643
(lp4644
F88.889
aa(lp4645
F30.0
aa(lp4646
F0.0
aa(lp4647
F17.28395062962964
aF0.0
aF0.0
atp4648
sS'5650'
p4649
((lp4650
(lp4651
F100.0
aa(lp4652
F72.5
aa(lp4653
F90.0
aa(lp4654
F0.0
aF18.75
aF0.0
atp4655
sS'5248'
p4656
((lp4657
(lp4658
F48.947
aa(lp4659
F89.833
aa(lp4660
F70.0
aa(lp4661
F19.944598473684223
aF1.638889
aF0.0
atp4662
sS'5520'
p4663
((lp4664
(lp4665
F0.5
aa(lp4666
F97.778
aa(lp4667
F72.8
aa(lp4668
F13.75
aF17.283950666666673
aF5.760000000000001
atp4669
sS'5521'
p4670
((lp4671
(lp4672
F0.0
aa(lp4673
F38.807
aa(lp4674
F80.714
aa(lp4675
F0.0
aF99.34081325948549
aF96.39455790476183
atp4676
sS'5818'
p4677
((lp4678
(lp4679
F0.0
aa(lp4680
F87.857
aa(lp4681
F34.0
aa(lp4682
F0.0
aF31.122448999999996
aF64.0
atp4683
sS'5115'
p4684
((lp4685
(lp4686
F90.0
aa(lp4687
F80.0
aa(lp4688
F90.0
aa(lp4689
F0.0
aF0.0
aI0
atp4690
sS'5114'
p4691
((lp4692
(lp4693
F0.0
aa(lp4694
F39.302
aa(lp4695
F85.357
aa(lp4696
F0.0
aF99.51325051162793
aF67.72959185714282
atp4697
sS'5117'
p4698
((lp4699
(lp4700
F95.462
aa(lp4701
F0.0
aa(lp4702
F61.0
aa(lp4703
F26.863905538461545
aF0.0
aF0.0
atp4704
sS'5116'
p4705
((lp4706
(lp4707
F50.0
aa(lp4708
F76.642
aa(lp4709
F24.625
aa(lp4710
F0.0
aF88.5576463133098
aF132.36888586956522
atp4711
sS'5111'
p4712
((lp4713
(lp4714
F89.9
aa(lp4715
F3.797
aa(lp4716
F62.182
aa(lp4717
F0.9899999999999932
aF99.50328494936721
aF95.2396694545454
atp4718
sS'5110'
p4719
((lp4720
(lp4721
F90.0
aa(lp4722
F80.0
aa(lp4723
F90.0
aa(lp4724
F0.0
aF0.0
aI0
atp4725
sS'5113'
p4726
((lp4727
(lp4728
F90.0
aa(lp4729
F70.0
aa(lp4730
F90.0
aa(lp4731
F0.0
aF0.0
aI0
atp4732
sS'5112'
p4733
((lp4734
(lp4735
F88.653
aa(lp4736
F0.0
aa(lp4737
F43.846
aa(lp4738
F23.08371512244884
aF0.0
aF85.20710061538463
atp4739
sS'5296'
p4740
((lp4741
(lp4742
F89.929
aa(lp4743
F30.0
aa(lp4744
F70.0
aa(lp4745
F0.7066780106761623
aF0.0
aF0.0
atp4746
sS'5297'
p4747
((lp4748
(lp4749
F90.0
aa(lp4750
F90.0
aa(lp4751
F90.0
aa(lp4752
F0.0
aI0
aI0
atp4753
sS'5294'
p4754
((lp4755
(lp4756
F-0.0
aa(lp4757
F88.493
aa(lp4758
F37.0
aa(lp4759
F0.0
aF27.866391465753377
aF91.0
atp4760
sS'5295'
p4761
((lp4762
(lp4763
F90.0
aa(lp4764
F80.0
aa(lp4765
F90.0
aa(lp4766
F0.0
aF0.0
aI0
atp4767
sS'5119'
p4768
((lp4769
(lp4770
F95.667
aa(lp4771
F0.0
aa(lp4772
F52.936
aa(lp4773
F32.516795976744305
aF0.0
aF226.2569826995068
atp4774
sS'5293'
p4775
((lp4776
(lp4777
F90.0
aa(lp4778
F90.0
aa(lp4779
F90.0
aa(lp4780
F0.0
aI0
aI0
atp4781
sS'5290'
p4782
((lp4783
(lp4784
F90.0
aa(lp4785
F90.0
aa(lp4786
F90.0
aa(lp4787
F0.0
aI0
aI0
atp4788
sS'5291'
p4789
((lp4790
(lp4791
F80.0
aa(lp4792
F90.0
aa(lp4793
F90.0
aa(lp4794
F0.0
aF0.0
aI0
atp4795
sS'5883'
p4796
((lp4797
(lp4798
F90.0
aa(lp4799
F90.0
aa(lp4800
F90.0
aa(lp4801
F0.0
aI0
aI0
atp4802
sS'5882'
p4803
((lp4804
(lp4805
F90.0
aa(lp4806
F80.0
aa(lp4807
F90.0
aa(lp4808
F0.0
aF0.0
aI0
atp4809
sS'5881'
p4810
((lp4811
(lp4812
F90.0
aa(lp4813
F80.0
aa(lp4814
F90.0
aa(lp4815
F0.0
aF0.0
aI0
atp4816
sS'5880'
p4817
((lp4818
(lp4819
F90.0
aa(lp4820
F80.0
aa(lp4821
F90.0
aa(lp4822
F0.0
aF0.0
aI0
atp4823
sS'5887'
p4824
((lp4825
(lp4826
F57.976
aa(lp4827
F6.442
aa(lp4828
F95.678
aa(lp4829
F97.09467123809527
aF117.15051784615372
aF56.743751796610105
atp4830
sS'5886'
p4831
((lp4832
(lp4833
F90.0
aa(lp4834
F80.0
aa(lp4835
F90.0
aa(lp4836
F0.0
aF0.0
aI0
atp4837
sS'5885'
p4838
((lp4839
(lp4840
F90.0
aa(lp4841
F0.0
aa(lp4842
F62.174
aa(lp4843
F0.0
aF0.0
aF95.2741020869565
atp4844
sS'5884'
p4845
((lp4846
(lp4847
F90.0
aa(lp4848
F90.0
aa(lp4849
F90.0
aa(lp4850
F0.0
aI0
aI0
atp4851
sS'5054'
p4852
((lp4853
(lp4854
F90.0
aa(lp4855
F0.0
aa(lp4856
F80.0
aa(lp4857
F0.0
aF0.0
aF0.0
atp4858
sS'5055'
p4859
((lp4860
(lp4861
F90.0
aa(lp4862
F0.0
aa(lp4863
F80.0
aa(lp4864
F0.0
aF0.0
aF0.0
atp4865
sS'5889'
p4866
((lp4867
(lp4868
F80.0
aa(lp4869
F90.0
aa(lp4870
F80.0
aa(lp4871
F0.0
aF0.0
aI0
atp4872
sS'5888'
p4873
((lp4874
(lp4875
F90.0
aa(lp4876
F80.0
aa(lp4877
F90.0
aa(lp4878
F0.0
aF0.0
aI0
atp4879
sS'5050'
p4880
((lp4881
(lp4882
F90.0
aa(lp4883
F50.0
aa(lp4884
F80.0
aa(lp4885
F0.0
aF0.0
aF0.0
atp4886
sS'5051'
p4887
((lp4888
(lp4889
F87.297
aa(lp4890
F45.556
aa(lp4891
F0.0
aa(lp4892
F35.93864143243245
aF69.13580266666666
aF0.0
atp4893
sS'5052'
p4894
((lp4895
(lp4896
F90.0
aa(lp4897
F90.0
aa(lp4898
F90.0
aa(lp4899
F0.0
aI0
aI0
atp4900
sS'5053'
p4901
((lp4902
(lp4903
F90.0
aa(lp4904
F90.0
aa(lp4905
F90.0
aa(lp4906
F0.0
aI0
aI0
atp4907
sS'5728'
p4908
((lp4909
(lp4910
F89.167
aa(lp4911
F4.138
aa(lp4912
F64.091
aa(lp4913
F7.638889000000011
aF107.01545779310347
aF83.26446281818185
atp4914
sS'5729'
p4915
((lp4916
(lp4917
F47.687
aa(lp4918
F96.071
aa(lp4919
F66.571
aa(lp4920
F21.464843999999985
aF23.852041000000003
aF30.530612428571434
atp4921
sS'5819'
p4922
((lp4923
(lp4924
F90.0
aa(lp4925
F0.0
aa(lp4926
F76.667
aa(lp4927
F0.0
aF0.0
aF22.222222333333335
atp4928
sS'5722'
p4929
((lp4930
(lp4931
F77.21
aa(lp4932
F50.489
aa(lp4933
F30.0
aa(lp4934
F45.49916172839506
aF3.6966954680851134
aF0.0
atp4935
sS'5723'
p4936
((lp4937
(lp4938
F90.0
aa(lp4939
F90.0
aa(lp4940
F90.0
aa(lp4941
F0.0
aI0
aI0
atp4942
sS'5720'
p4943
((lp4944
(lp4945
F90.0
aa(lp4946
F90.0
aa(lp4947
F90.0
aa(lp4948
F0.0
aI0
aI0
atp4949
sS'5721'
p4950
((lp4951
(lp4952
F90.0
aa(lp4953
F90.0
aa(lp4954
F90.0
aa(lp4955
F0.0
aI0
aI0
atp4956
sS'5726'
p4957
((lp4958
(lp4959
F82.619
aa(lp4960
F0.0
aa(lp4961
F100.0
aa(lp4962
F62.18820861904762
aF0.0
aF0.0
atp4963
sS'5870'
p4964
((lp4965
(lp4966
F90.0
aa(lp4967
F90.0
aa(lp4968
F90.0
aa(lp4969
F0.0
aI0
aI0
atp4970
sS'5724'
p4971
((lp4972
(lp4973
F89.773
aa(lp4974
F40.526
aa(lp4975
F0.0
aa(lp4976
F3.7362259696969784
aF99.72299178947371
aF0.0
atp4977
sS'5725'
p4978
((lp4979
(lp4980
F75.0
aa(lp4981
F90.0
aa(lp4982
F0.0
aa(lp4983
F25.0
aF0.0
aF0.0
atp4984
sS'5978'
p4985
((lp4986
(lp4987
F90.0
aa(lp4988
F90.0
aa(lp4989
F90.0
aa(lp4990
F0.0
aI0
aI0
atp4991
sS'5559'
p4992
((lp4993
(lp4994
F90.0
aa(lp4995
F80.0
aa(lp4996
F90.0
aa(lp4997
F0.0
aF0.0
aI0
atp4998
sS'5201'
p4999
((lp5000
(lp5001
F80.0
aa(lp5002
F90.0
aa(lp5003
F90.0
aa(lp5004
F0.0
aF0.0
aI0
atp5005
sS'5200'
p5006
((lp5007
(lp5008
F85.816
aa(lp5009
F43.023
aa(lp5010
F0.0
aa(lp5011
F64.50167189958135
aF90.85992434883707
aF0.0
atp5012
sS'5203'
p5013
((lp5014
(lp5015
F90.0
aa(lp5016
F0.0
aa(lp5017
F40.0
aa(lp5018
F0.0
aF0.0
aF100.0
atp5019
sS'5202'
p5020
((lp5021
(lp5022
F91.781
aa(lp5023
F17.0
aa(lp5024
F79.167
aa(lp5025
F13.983398499999993
aF289.0
aF8.916666777777772
atp5026
sS'5205'
p5027
((lp5028
(lp5029
F90.0
aa(lp5030
F90.0
aa(lp5031
F90.0
aa(lp5032
F0.0
aI0
aI0
atp5033
sS'5204'
p5034
((lp5035
(lp5036
F90.0
aa(lp5037
F90.0
aa(lp5038
F90.0
aa(lp5039
F0.0
aI0
aI0
atp5040
sS'5207'
p5041
((lp5042
(lp5043
F80.0
aa(lp5044
F90.0
aa(lp5045
F80.0
aa(lp5046
F0.0
aF0.0
aI0
atp5047
sS'5206'
p5048
((lp5049
(lp5050
F40.476
aa(lp5051
F86.875
aa(lp5052
F70.0
aa(lp5053
F99.77324266666668
aF21.484375
aF0.0
atp5054
sS'5209'
p5055
((lp5056
(lp5057
F81.154
aa(lp5058
F0.0
aa(lp5059
F48.0
aa(lp5060
F71.74556215384612
aF0.0
aF36.0
atp5061
sS'5208'
p5062
((lp5063
(lp5064
F90.0
aa(lp5065
F80.0
aa(lp5066
F90.0
aa(lp5067
F0.0
aF0.0
aI0
atp5068
sS'5971'
p5069
((lp5070
(lp5071
F84.839
aa(lp5072
F0.741
aa(lp5073
F47.8
aa(lp5074
F24.97398551612904
aF14.266118037037037
aF34.16
atp5075
sS'5966'
p5076
((lp5077
(lp5078
F90.0
aa(lp5079
F80.0
aa(lp5080
F80.0
aa(lp5081
F0.0
aF0.0
aI0
atp5082
sS'5836'
p5083
((lp5084
(lp5085
F90.0
aa(lp5086
F10.0
aa(lp5087
F70.0
aa(lp5088
F0.0
aF0.0
aF0.0
atp5089
sS'5837'
p5090
((lp5091
(lp5092
F78.889
aa(lp5093
F0.0
aa(lp5094
F90.0
aa(lp5095
F9.876543222222228
aF0.0
aF0.0
atp5096
sS'5834'
p5097
((lp5098
(lp5099
F100.0
aa(lp5100
F0.154
aa(lp5101
F89.991
aa(lp5102
F0.0
aF1.5147929230769233
aF0.3316547791932083
atp5103
sS'5879'
p5104
((lp5105
(lp5106
F80.0
aa(lp5107
F0.0
aa(lp5108
F90.0
aa(lp5109
F0.0
aF0.0
aF0.0
atp5110
sS'5832'
p5111
((lp5112
(lp5113
F90.0
aa(lp5114
F100.0
aa(lp5115
F90.0
aa(lp5116
F0.0
aF0.0
aI0
atp5117
sS'5833'
p5118
((lp5119
(lp5120
F-0.0
aa(lp5121
F90.0
aa(lp5122
F40.909
aa(lp5123
F0.0
aF0.0
aF99.17355372727273
atp5124
sS'5830'
p5125
((lp5126
(lp5127
F92.138
aa(lp5128
F1.529
aa(lp5129
F56.954
aa(lp5130
F64.23211066666677
aF20.59312762420385
aF100.62863907692312
atp5131
sS'5831'
p5132
((lp5133
(lp5134
F80.0
aa(lp5135
F90.0
aa(lp5136
F90.0
aa(lp5137
F0.0
aF0.0
aI0
atp5138
sS'5632'
p5139
((lp5140
(lp5141
F86.5
aa(lp5142
F46.0
aa(lp5143
F0.0
aa(lp5144
F32.75
aF64.0
aF0.0
atp5145
sS'5838'
p5146
((lp5147
(lp5148
F90.0
aa(lp5149
F38.889
aa(lp5150
F78.0
aa(lp5151
F0.0
aF98.76543211111112
aF16.0
atp5152
sS'5839'
p5153
((lp5154
(lp5155
F90.0
aa(lp5156
F80.0
aa(lp5157
F70.0
aa(lp5158
F0.0
aF0.0
aF0.0
atp5159
sS'5996'
p5160
((lp5161
(lp5162
F90.0
aa(lp5163
F80.0
aa(lp5164
F90.0
aa(lp5165
F0.0
aF0.0
aI0
atp5166
sS'5967'
p5167
((lp5168
(lp5169
F94.0
aa(lp5170
F41.667
aa(lp5171
F73.158
aa(lp5172
F24.0
aF80.55555566666668
aF53.18559557894737
atp5173
sS'5043'
p5174
((lp5175
(lp5176
F90.0
aa(lp5177
F80.0
aa(lp5178
F90.0
aa(lp5179
F0.0
aF0.0
aI0
atp5180
sS'5476'
p5181
((lp5182
(lp5183
F56.25
aa(lp5184
F89.432
aa(lp5185
F0.0
aa(lp5186
F85.9375
aF5.358987636363647
aF0.0
atp5187
sS'5477'
p5188
((lp5189
(lp5190
F0.0
aa(lp5191
F78.089
aa(lp5192
F42.216
aa(lp5193
F0.0
aF96.3476543333333
aF95.0883857297298
atp5194
sS'5474'
p5195
((lp5196
(lp5197
F90.0
aa(lp5198
F0.0
aa(lp5199
F80.0
aa(lp5200
F0.0
aF0.0
aF0.0
atp5201
sS'5475'
p5202
((lp5203
(lp5204
F0.0
aa(lp5205
F92.727
aa(lp5206
F74.571
aa(lp5207
F0.0
aF19.83471081818182
aF73.95918385714286
atp5208
sS'5472'
p5209
((lp5210
(lp5211
F90.0
aa(lp5212
F20.0
aa(lp5213
F76.167
aa(lp5214
F0.0
aF0.0
aF30.138889000000002
atp5215
sS'5473'
p5216
((lp5217
(lp5218
F23.571
aa(lp5219
F89.821
aa(lp5220
F65.556
aa(lp5221
F151.53061242857143
aF1.7538267142857162
aF69.13580266666666
atp5222
sS'5470'
p5223
((lp5224
(lp5225
F76.081
aa(lp5226
F40.978
aa(lp5227
F-0.0
aa(lp5228
F84.64207451351349
aF99.04300573913054
aF0.0
atp5229
sS'5471'
p5230
((lp5231
(lp5232
F78.676
aa(lp5233
F93.421
aa(lp5234
F37.5
aa(lp5235
F18.80709364705882
aF22.506925210526273
aF468.75
atp5236
sS'5478'
p5237
((lp5238
(lp5239
F90.517
aa(lp5240
F0.0
aa(lp5241
F64.727
aa(lp5242
F5.445498790209773
aF0.0
aF66.19834718181818
atp5243
sS'5479'
p5244
((lp5245
(lp5246
F60.0
aa(lp5247
F85.143
aa(lp5248
F0.0
aa(lp5249
F100.0
aF24.979591857142868
aF0.0
atp5250
sS'5274'
p5251
((lp5252
(lp5253
F76.467
aa(lp5254
F50.0
aa(lp5255
F91.25
aa(lp5256
F25.448889000000005
aF0.0
aF10.9375
atp5257
sS'5275'
p5258
((lp5259
(lp5260
F90.0
aa(lp5261
F80.0
aa(lp5262
F90.0
aa(lp5263
F0.0
aF0.0
aI0
atp5264
sS'5276'
p5265
((lp5266
(lp5267
F100.0
aa(lp5268
F0.0
aa(lp5269
F0.0
aa(lp5270
F0.0
aF0.0
aI0
atp5271
sS'5277'
p5272
((lp5273
(lp5274
F15.0
aa(lp5275
F90.0
aa(lp5276
F62.333
aa(lp5277
F75.0
aF0.0
aF94.55555566666665
atp5278
sS'5379'
p5279
((lp5280
(lp5281
F90.0
aa(lp5282
F90.0
aa(lp5283
F90.0
aa(lp5284
F0.0
aI0
aI0
atp5285
sS'5378'
p5286
((lp5287
(lp5288
F30.0
aa(lp5289
F86.154
aa(lp5290
F0.0
aa(lp5291
F0.0
aF23.66863907692308
aF0.0
atp5292
sS'5272'
p5293
((lp5294
(lp5295
F90.0
aa(lp5296
F70.0
aa(lp5297
F90.0
aa(lp5298
F0.0
aF0.0
aI0
atp5299
sS'5273'
p5300
((lp5301
(lp5302
F90.0
aa(lp5303
F80.0
aa(lp5304
F90.0
aa(lp5305
F0.0
aF0.0
aI0
atp5306
sS'5375'
p5307
((lp5308
(lp5309
F0.012
aa(lp5310
F51.049
aa(lp5311
F82.271
aa(lp5312
F0.1156069629629646
aF70.90005953658537
aF79.82248266666663
atp5313
sS'5374'
p5314
((lp5315
(lp5316
F80.0
aa(lp5317
F90.0
aa(lp5318
F90.0
aa(lp5319
F0.0
aF0.0
aI0
atp5320
sS'5377'
p5321
((lp5322
(lp5323
F0.0
aa(lp5324
F84.286
aa(lp5325
F30.0
aa(lp5326
F0.0
aF24.489796000000002
aF0.0
atp5327
sS'5376'
p5328
((lp5329
(lp5330
F0.269
aa(lp5331
F85.298
aa(lp5332
F41.913
aa(lp5333
F2.7608481794871795
aF101.9280106115703
aF98.36925015942026
atp5334
sS'5371'
p5335
((lp5336
(lp5337
F-0.0
aa(lp5338
F77.619
aa(lp5339
F40.0
aa(lp5340
F0.0
aF37.188208619047614
aF100.0
atp5341
sS'5370'
p5342
((lp5343
(lp5344
F-0.0
aa(lp5345
F88.684
aa(lp5346
F38.913
aa(lp5347
F0.0
aF24.584487578947396
aF98.8185255217391
atp5348
sS'5373'
p5349
((lp5350
(lp5351
F-0.0
aa(lp5352
F90.0
aa(lp5353
F0.0
aa(lp5354
F0.0
aF0.0
aI0
atp5355
sS'5372'
p5356
((lp5357
(lp5358
F80.0
aa(lp5359
F100.0
aa(lp5360
F90.0
aa(lp5361
F0.0
aF0.0
aF0.0
atp5362
sS'5902'
p5363
((lp5364
(lp5365
F83.718
aa(lp5366
F-0.0
aa(lp5367
F38.142
aa(lp5368
F90.02301117948709
aF0.0
aF96.54632329203558
atp5369
sS'5903'
p5370
((lp5371
(lp5372
F76.667
aa(lp5373
F24.667
aa(lp5374
F90.0
aa(lp5375
F22.222222333333335
aF336.888889
aF0.0
atp5376
sS'5900'
p5377
((lp5378
(lp5379
F40.12
aa(lp5380
F86.962
aa(lp5381
F-0.0
aa(lp5382
F99.98548433734945
aF51.53020349367096
aF0.0
atp5383
sS'5901'
p5384
((lp5385
(lp5386
F90.0
aa(lp5387
F80.0
aa(lp5388
F90.0
aa(lp5389
F0.0
aF0.0
aI0
atp5390
sS'5906'
p5391
((lp5392
(lp5393
F75.781
aa(lp5394
F25.714
aa(lp5395
F50.0
aa(lp5396
F80.63964850000009
aF110.20408171428569
aF0.0
atp5397
sS'5907'
p5398
((lp5399
(lp5400
F80.0
aa(lp5401
F90.0
aa(lp5402
F90.0
aa(lp5403
F0.0
aF0.0
aI0
atp5404
sS'5904'
p5405
((lp5406
(lp5407
F63.889
aa(lp5408
F18.0
aa(lp5409
F88.75
aa(lp5410
F84.87654322222221
aF216.0
aF10.9375
atp5411
sS'5905'
p5412
((lp5413
(lp5414
F70.0
aa(lp5415
F50.0
aa(lp5416
F70.0
aa(lp5417
F0.0
aF0.0
aI0
atp5418
sS'5908'
p5419
((lp5420
(lp5421
F80.34
aa(lp5422
F27.391
aa(lp5423
F50.0
aa(lp5424
F72.6734231292517
aF71.45557665217389
aF0.0
atp5425
sS'5909'
p5426
((lp5427
(lp5428
F86.25
aa(lp5429
F0.0
aa(lp5430
F36.667
aa(lp5431
F60.9375
aF0.0
aF88.88888899999999
atp5432
sS'5519'
p5433
((lp5434
(lp5435
F90.0
aa(lp5436
F80.0
aa(lp5437
F90.0
aa(lp5438
F0.0
aF0.0
aI0
atp5439
sS'5518'
p5440
((lp5441
(lp5442
F80.0
aa(lp5443
F90.0
aa(lp5444
F90.0
aa(lp5445
F0.0
aF0.0
aI0
atp5446
sS'5511'
p5447
((lp5448
(lp5449
F90.0
aa(lp5450
F80.0
aa(lp5451
F80.0
aa(lp5452
F0.0
aF0.0
aI0
atp5453
sS'5510'
p5454
((lp5455
(lp5456
F71.818
aa(lp5457
F90.0
aa(lp5458
F50.0
aa(lp5459
F14.876033090909091
aF0.0
aF0.0
atp5460
sS'5513'
p5461
((lp5462
(lp5463
F90.0
aa(lp5464
F90.0
aa(lp5465
F90.0
aa(lp5466
F0.0
aI0
aI0
atp5467
sS'5512'
p5468
((lp5469
(lp5470
F83.0
aa(lp5471
F0.0
aa(lp5472
F54.0
aa(lp5473
F26.705882352941178
aF0.0
aF98.66666666666667
atp5474
sS'5515'
p5475
((lp5476
(lp5477
F63.049
aa(lp5478
F89.961
aa(lp5479
F11.518
aa(lp5480
F90.70493758536578
aF0.3860946434108509
aF212.87468114285713
atp5481
sS'5514'
p5482
((lp5483
(lp5484
F80.0
aa(lp5485
F0.0
aa(lp5486
F90.0
aa(lp5487
F0.0
aF0.0
aF0.0
atp5488
sS'5517'
p5489
((lp5490
(lp5491
F90.0
aa(lp5492
F90.0
aa(lp5493
F90.0
aa(lp5494
F0.0
aI0
aI0
atp5495
sS'5516'
p5496
((lp5497
(lp5498
F94.294
aa(lp5499
F5.0
aa(lp5500
F80.0
aa(lp5501
F24.717416392156867
aF75.0
aF0.0
atp5502
sS'5892'
p5503
((lp5504
(lp5505
F90.0
aa(lp5506
F80.0
aa(lp5507
F90.0
aa(lp5508
F0.0
aF0.0
aI0
atp5509
sS'5010'
p5510
((lp5511
(lp5512
F85.455
aa(lp5513
F100.0
aa(lp5514
F50.0
aa(lp5515
F24.793388636363645
aF0.0
aF0.0
atp5516
sS'5011'
p5517
((lp5518
(lp5519
F86.0
aa(lp5520
F0.0
aa(lp5521
F100.0
aa(lp5522
F24.0
aF0.0
aF0.0
atp5523
sS'5012'
p5524
((lp5525
(lp5526
F90.0
aa(lp5527
F80.0
aa(lp5528
F80.0
aa(lp5529
F0.0
aF0.0
aI0
atp5530
sS'5013'
p5531
((lp5532
(lp5533
F83.429
aa(lp5534
F38.707
aa(lp5535
F2.071
aa(lp5536
F132.28402148780464
aF98.3294000204082
aF26.637755285714285
atp5537
sS'5014'
p5538
((lp5539
(lp5540
F0.0
aa(lp5541
F90.714
aa(lp5542
F77.444
aa(lp5543
F0.0
aF6.632653142857142
aF52.2469137777778
atp5544
sS'5015'
p5545
((lp5546
(lp5547
F80.0
aa(lp5548
F90.0
aa(lp5549
F90.0
aa(lp5550
F0.0
aF0.0
aI0
atp5551
sS'5016'
p5552
((lp5553
(lp5554
F80.0
aa(lp5555
F90.0
aa(lp5556
F90.0
aa(lp5557
F0.0
aF0.0
aI0
atp5558
sS'5017'
p5559
((lp5560
(lp5561
F90.625
aa(lp5562
F0.0
aa(lp5563
F50.0
aa(lp5564
F5.859375
aF0.0
aF0.0
atp5565
sS'5018'
p5566
((lp5567
(lp5568
F63.571
aa(lp5569
F31.0
aa(lp5570
F90.0
aa(lp5571
F61.102040999999986
aF7.0
aF0.0
atp5572
sS'5019'
p5573
((lp5574
(lp5575
F87.955
aa(lp5576
F-0.0
aa(lp5577
F40.0
aa(lp5578
F29.90702499999998
aF0.0
aF100.0
atp5579
sS'5153'
p5580
((lp5581
(lp5582
F78.617
aa(lp5583
F0.0
aa(lp5584
F39.391
aa(lp5585
F98.08831600964679
aF0.0
aF99.6294896956518
atp5586
sS'5152'
p5587
((lp5588
(lp5589
F90.0
aa(lp5590
F80.0
aa(lp5591
F90.0
aa(lp5592
F0.0
aF0.0
aI0
atp5593
sS'5155'
p5594
((lp5595
(lp5596
F90.0
aa(lp5597
F80.0
aa(lp5598
F80.0
aa(lp5599
F0.0
aI0
aF0.0
atp5600
sS'5154'
p5601
((lp5602
(lp5603
F70.104
aa(lp5604
F90.0
aa(lp5605
F47.391
aa(lp5606
F1.0308159999999957
aF0.0
aF45.36862013043477
atp5607
sS'5157'
p5608
((lp5609
(lp5610
F89.562
aa(lp5611
F70.0
aa(lp5612
F47.5
aa(lp5613
F4.187756408759104
aF0.0
aF43.75
atp5614
sS'5156'
p5615
((lp5616
(lp5617
F79.375
aa(lp5618
F30.0
aa(lp5619
F95.0
aa(lp5620
F5.859375
aF0.0
aF25.0
atp5621
sS'5605'
p5622
((lp5623
(lp5624
F89.928
aa(lp5625
F0.0
aa(lp5626
F50.0
aa(lp5627
F0.7193868985507245
aF0.0
aF0.0
atp5628
sS'5604'
p5629
((lp5630
(lp5631
F89.871
aa(lp5632
F3.0
aa(lp5633
F65.526
aa(lp5634
F10.829030705882454
aF81.0
aF69.45983389473689
atp5635
sS'5607'
p5636
((lp5637
(lp5638
F87.143
aa(lp5639
F36.667
aa(lp5640
F0.0
aa(lp5641
F27.55102042857141
aF88.88888899999999
aF0.0
atp5642
sS'5606'
p5643
((lp5644
(lp5645
F90.0
aa(lp5646
F80.0
aa(lp5647
F90.0
aa(lp5648
F0.0
aF0.0
aI0
atp5649
sS'5601'
p5650
((lp5651
(lp5652
F90.014
aa(lp5653
F79.814
aa(lp5654
F99.875
aa(lp5655
F0.07022416901408449
aF2.011898325581397
aF0.234375
atp5656
sS'5600'
p5657
((lp5658
(lp5659
F90.0
aa(lp5660
F80.0
aa(lp5661
F80.0
aa(lp5662
F0.0
aF0.0
aI0
atp5663
sS'5603'
p5664
((lp5665
(lp5666
F70.556
aa(lp5667
F90.0
aa(lp5668
F50.0
aa(lp5669
F5.246913777777776
aF0.0
aF0.0
atp5670
sS'5602'
p5671
((lp5672
(lp5673
F80.0
aa(lp5674
F90.0
aa(lp5675
F99.0
aa(lp5676
F0.0
aF0.0
aF0.0
atp5677
sS'5766'
p5678
((lp5679
(lp5680
F80.0
aa(lp5681
F90.0
aa(lp5682
F90.0
aa(lp5683
F0.0
aF0.0
aI0
atp5684
sS'5767'
p5685
((lp5686
(lp5687
F0.0
aa(lp5688
F81.25
aa(lp5689
F41.22
aa(lp5690
F0.0
aF67.1875
aF98.51279024390244
atp5691
sS'5764'
p5692
((lp5693
(lp5694
F0.02
aa(lp5695
F93.905
aa(lp5696
F39.111
aa(lp5697
F0.20080241448692143
aF69.51473928571426
aF105.87654322222221
atp5698
sS'5765'
p5699
((lp5700
(lp5701
F17.468
aa(lp5702
F59.878
aa(lp5703
F89.937
aa(lp5704
F218.9096358251916
aF99.98515056512089
aF0.6269342996845764
atp5705
sS'5063'
p5706
((lp5707
(lp5708
F80.0
aa(lp5709
F90.0
aa(lp5710
F90.0
aa(lp5711
F0.0
aF0.0
aI0
atp5712
sS'5608'
p5713
((lp5714
(lp5715
F90.0
aa(lp5716
F80.0
aa(lp5717
F80.0
aa(lp5718
F0.0
aF0.0
aI0
atp5719
sS'5760'
p5720
((lp5721
(lp5722
F70.154
aa(lp5723
F90.0
aa(lp5724
F49.286
aa(lp5725
F1.5147929230769208
aF0.0
aF13.775510285714285
atp5726
sS'5761'
p5727
((lp5728
(lp5729
F-0.0
aa(lp5730
F75.208
aa(lp5731
F41.847
aa(lp5732
F0.0
aF74.95659733333333
aF96.58809689808918
atp5733
sS'5568'
p5734
((lp5735
(lp5736
F35.333
aa(lp5737
F83.0
aa(lp5738
F0.0
aa(lp5739
F78.22222233333332
aF91.0
aF0.0
atp5740
sS'5569'
p5741
((lp5742
(lp5743
F99.25
aa(lp5744
F0.0
aa(lp5745
F55.714
aa(lp5746
F11.520833333333334
aF0.0
aF81.63265314285715
atp5747
sS'5693'
p5748
((lp5749
(lp5750
F78.6
aa(lp5751
F0.0
aa(lp5752
F90.0
aa(lp5753
F12.040000000000006
aF0.0
aF0.0
atp5754
sS'5564'
p5755
((lp5756
(lp5757
F90.0
aa(lp5758
F80.0
aa(lp5759
F90.0
aa(lp5760
F0.0
aF0.0
aI0
atp5761
sS'5565'
p5762
((lp5763
(lp5764
F90.0
aa(lp5765
F80.0
aa(lp5766
F90.0
aa(lp5767
F0.0
aF0.0
aI0
atp5768
sS'5566'
p5769
((lp5770
(lp5771
F95.562
aa(lp5772
F0.07
aa(lp5773
F54.652
aa(lp5774
F29.308593999999992
aF1.6792859649122873
aF229.37855854545472
atp5775
sS'5181'
p5776
((lp5777
(lp5778
F90.0
aa(lp5779
F0.0
aa(lp5780
F75.0
aa(lp5781
F0.0
aF0.0
aF25.0
atp5782
sS'5560'
p5783
((lp5784
(lp5785
F38.235
aa(lp5786
F79.459
aa(lp5787
F-0.0
aa(lp5788
F96.88581323529408
aF97.00511343243247
aF0.0
atp5789
sS'5561'
p5790
((lp5791
(lp5792
F90.0
aa(lp5793
F5.0
aa(lp5794
F68.462
aa(lp5795
F0.0
aF125.0
aF28.402367076923067
atp5796
sS'5562'
p5797
((lp5798
(lp5799
F23.398
aa(lp5800
F77.571
aa(lp5801
F50.0
aa(lp5802
F153.48968525000015
aF94.9591838571425
aF0.0
atp5803
sS'5563'
p5804
((lp5805
(lp5806
F80.0
aa(lp5807
F90.0
aa(lp5808
F80.0
aa(lp5809
F0.0
aF0.0
aI0
atp5810
sS'5281'
p5811
((lp5812
(lp5813
F84.194
aa(lp5814
F-0.0
aa(lp5815
F40.32
aa(lp5816
F82.12885822222218
aF0.0
aF102.29759999999997
atp5817
sS'5169'
p5818
((lp5819
(lp5820
F0.0
aa(lp5821
F76.0
aa(lp5822
F43.333
aa(lp5823
F0.0
aF77.33333333333333
aF88.88888900000006
atp5824
sS'5567'
p5825
((lp5826
(lp5827
F0.0
aa(lp5828
F85.385
aa(lp5829
F40.0
aa(lp5830
F0.0
aF101.77514807692305
aF0.0
atp5831
sS'5695'
p5832
((lp5833
(lp5834
F0.0
aa(lp5835
F82.406
aa(lp5836
F44.428
aa(lp5837
F0.0
aF93.45921193984944
aF80.39404967164208
atp5838
sS'5128'
p5839
((lp5840
(lp5841
F90.0
aa(lp5842
F90.0
aa(lp5843
F90.0
aa(lp5844
F0.0
aI0
aI0
atp5845
sS'5129'
p5846
((lp5847
(lp5848
F20.0
aa(lp5849
F85.833
aa(lp5850
F50.0
aa(lp5851
F200.0
aF65.9722223333333
aF0.0
atp5852
sS'5124'
p5853
((lp5854
(lp5855
F90.0
aa(lp5856
F80.0
aa(lp5857
F100.0
aa(lp5858
F0.0
aF0.0
aF0.0
atp5859
sS'5125'
p5860
((lp5861
(lp5862
F90.0
aa(lp5863
F22.5
aa(lp5864
F77.0
aa(lp5865
F0.0
aF168.75
aF21.0
atp5866
sS'5126'
p5867
((lp5868
(lp5869
F65.783
aa(lp5870
F2.27
aa(lp5871
F90.0
aa(lp5872
F66.55828732985414
aF62.94553803681018
aF0.0
atp5873
sS'5127'
p5874
((lp5875
(lp5876
F86.667
aa(lp5877
F0.0
aa(lp5878
F30.0
aa(lp5879
F44.44444455555559
aF0.0
aF0.0
atp5880
sS'5120'
p5881
((lp5882
(lp5883
F0.0
aa(lp5884
F88.618
aa(lp5885
F42.68
aa(lp5886
F0.0
aF32.99966945454514
aF95.90817319587637
atp5887
sS'5121'
p5888
((lp5889
(lp5890
F90.0
aa(lp5891
F80.0
aa(lp5892
F90.0
aa(lp5893
F0.0
aF0.0
aI0
atp5894
sS'5122'
p5895
((lp5896
(lp5897
F86.488
aa(lp5898
F43.088
aa(lp5899
F2.0
aa(lp5900
F83.0547293658537
aF102.96280282352943
aF29.333333333333332
atp5901
sS'5123'
p5902
((lp5903
(lp5904
F90.0
aa(lp5905
F90.0
aa(lp5906
F90.0
aa(lp5907
F0.0
aI0
aI0
atp5908
sS'5151'
p5909
((lp5910
(lp5911
F80.0
aa(lp5912
F90.0
aa(lp5913
F80.0
aa(lp5914
F0.0
aF0.0
aI0
atp5915
sS'5089'
p5916
((lp5917
(lp5918
F76.897
aa(lp5919
F35.455
aa(lp5920
F90.0
aa(lp5921
F21.403091758620693
aF79.33884318181818
aF0.0
atp5922
sS'5088'
p5923
((lp5924
(lp5925
F90.0
aa(lp5926
F80.0
aa(lp5927
F90.0
aa(lp5928
F0.0
aF0.0
aI0
atp5929
sS'5083'
p5930
((lp5931
(lp5932
F90.0
aa(lp5933
F0.0
aa(lp5934
F90.0
aa(lp5935
I0
aF0.0
aF0.0
atp5936
sS'5082'
p5937
((lp5938
(lp5939
F75.224
aa(lp5940
F26.588
aa(lp5941
F50.0
aa(lp5942
F63.75584764179108
aF90.71280282352949
aF0.0
atp5943
sS'5081'
p5944
((lp5945
(lp5946
F90.0
aa(lp5947
F90.0
aa(lp5948
F90.0
aa(lp5949
F0.0
aI0
aI0
atp5950
sS'5080'
p5951
((lp5952
(lp5953
F87.08
aa(lp5954
F35.645
aa(lp5955
F0.0
aa(lp5956
F50.506231932773254
aF81.03537983870964
aF0.0
atp5957
sS'5087'
p5958
((lp5959
(lp5960
F87.5
aa(lp5961
F0.0
aa(lp5962
F50.0
aa(lp5963
F18.75
aF0.0
aF0.0
atp5964
sS'5086'
p5965
((lp5966
(lp5967
F90.0
aa(lp5968
F80.0
aa(lp5969
F90.0
aa(lp5970
F0.0
aF0.0
aI0
atp5971
sS'5085'
p5972
((lp5973
(lp5974
F88.182
aa(lp5975
F39.474
aa(lp5976
F70.0
aa(lp5977
F14.876033090909079
aF99.72299178947372
aF0.0
atp5978
sS'5084'
p5979
((lp5980
(lp5981
F90.0
aa(lp5982
F80.0
aa(lp5983
F90.0
aa(lp5984
F0.0
aF0.0
aI0
atp5985
sS'5438'
p5986
((lp5987
(lp5988
F89.78
aa(lp5989
F-0.0
aa(lp5990
F35.714
aa(lp5991
F4.347301098901105
aF0.0
aF81.63265314285715
atp5992
sS'5159'
p5993
((lp5994
(lp5995
F90.0
aa(lp5996
F20.0
aa(lp5997
F64.5
aa(lp5998
F0.0
aF200.0
aF79.75
atp5999
sS'5707'
p6000
((lp6001
(lp6002
F90.0
aa(lp6003
F80.0
aa(lp6004
F90.0
aa(lp6005
F0.0
aF0.0
aI0
atp6006
sS'5049'
p6007
((lp6008
(lp6009
F0.0
aa(lp6010
F90.0
aa(lp6011
F45.0
aa(lp6012
F0.0
aF0.0
aF75.0
atp6013
sS'5158'
p6014
((lp6015
(lp6016
F81.0
aa(lp6017
F39.444
aa(lp6018
F-0.0
aa(lp6019
F89.0
aF99.69135822222215
aF0.0
atp6020
sS'5048'
p6021
((lp6022
(lp6023
F90.0
aa(lp6024
F80.0
aa(lp6025
F90.0
aa(lp6026
F0.0
aF0.0
aI0
atp6027
sS'5835'
p6028
((lp6029
(lp6030
F70.816
aa(lp6031
F90.0
aa(lp6032
F41.087
aa(lp6033
F7.496876408163272
aF0.0
aF131.427221173913
atp6034
sS'5331'
p6035
((lp6036
(lp6037
F87.021
aa(lp6038
F36.75
aa(lp6039
F0.0
aa(lp6040
F62.40380270212764
aF95.6875
aF0.0
atp6041
sS'5330'
p6042
((lp6043
(lp6044
F67.612
aa(lp6045
F99.412
aa(lp6046
F2.857
aa(lp6047
F136.11495216326531
aF5.536332235294106
aF48.97959185714284
atp6048
sS'5333'
p6049
((lp6050
(lp6051
F100.0
aa(lp6052
F100.0
aa(lp6053
F100.0
aa(lp6054
F0.0
aI0
aI0
atp6055
sS'5332'
p6056
((lp6057
(lp6058
F0.0
aa(lp6059
F85.0
aa(lp6060
F45.556
aa(lp6061
F0.0
aF67.85714285714286
aF69.13580266666666
atp6062
sS'5335'
p6063
((lp6064
(lp6065
F90.0
aa(lp6066
F90.0
aa(lp6067
F90.0
aa(lp6068
F0.0
aI0
aI0
atp6069
sS'5334'
p6070
((lp6071
(lp6072
F0.0
aa(lp6073
F83.529
aa(lp6074
F30.0
aa(lp6075
F0.0
aF58.131488058823535
aF0.0
atp6076
sS'5337'
p6077
((lp6078
(lp6079
F0.0
aa(lp6080
F63.233
aa(lp6081
F90.081
aa(lp6082
F0.0
aF89.54717621804527
aF0.8063983983739862
atp6083
sS'5336'
p6084
((lp6085
(lp6086
F90.0
aa(lp6087
F90.0
aa(lp6088
F90.0
aa(lp6089
F0.0
aI0
aI0
atp6090
sS'5339'
p6091
((lp6092
(lp6093
F90.0
aa(lp6094
F90.0
aa(lp6095
F90.0
aa(lp6096
F0.0
aI0
aI0
atp6097
sS'5338'
p6098
((lp6099
(lp6100
F62.857
aa(lp6101
F0.0
aa(lp6102
F83.061
aa(lp6103
F48.97959185714286
aF0.0
aF37.56768018367347
atp6104
sS'5453'
p6105
((lp6106
(lp6107
F90.0
aa(lp6108
F80.0
aa(lp6109
F90.0
aa(lp6110
F0.0
aF0.0
aI0
atp6111
sS'5946'
p6112
((lp6113
(lp6114
F90.0
aa(lp6115
F100.0
aa(lp6116
F90.0
aa(lp6117
F0.0
aF0.0
aI0
atp6118
sS'5947'
p6119
((lp6120
(lp6121
F64.078
aa(lp6122
F4.464
aa(lp6123
F89.864
aa(lp6124
F83.36818455865944
aF113.99872457142877
aF1.3420334149659723
atp6125
sS'5944'
p6126
((lp6127
(lp6128
F70.0
aa(lp6129
F90.0
aa(lp6130
F0.0
aa(lp6131
F0.0
aF0.0
aF0.0
atp6132
sS'5945'
p6133
((lp6134
(lp6135
F60.847
aa(lp6136
F89.5
aa(lp6137
F23.333
aa(lp6138
F99.28181577966107
aF4.75
aF155.5555556666667
atp6139
sS'5942'
p6140
((lp6141
(lp6142
F97.933
aa(lp6143
F82.5
aa(lp6144
F63.0
aa(lp6145
F11.928888999999998
aF18.45
aF9.0
atp6146
sS'5943'
p6147
((lp6148
(lp6149
F85.417
aa(lp6150
F0.0
aa(lp6151
F43.333
aa(lp6152
F24.82638899999999
aF0.0
aF88.88888899999999
atp6153
sS'5940'
p6154
((lp6155
(lp6156
F90.0
aa(lp6157
F80.0
aa(lp6158
F80.0
aa(lp6159
F0.0
aF0.0
aI0
atp6160
sS'5941'
p6161
((lp6162
(lp6163
F86.0
aa(lp6164
F37.097
aa(lp6165
F-0.0
aa(lp6166
F64.0
aF91.57127996774189
aF0.0
atp6167
sS'5230'
p6168
((lp6169
(lp6170
F0.0
aa(lp6171
F34.375
aa(lp6172
F85.556
aa(lp6173
F0.0
aF68.359375
aF69.1358026666667
atp6174
sS'5231'
p6175
((lp6176
(lp6177
F78.381
aa(lp6178
F-0.0
aa(lp6179
F41.489
aa(lp6180
F96.97257800404891
aF0.0
aF97.78180185106413
atp6181
sS'5232'
p6182
((lp6183
(lp6184
F63.793
aa(lp6185
F4.286
aa(lp6186
F88.462
aa(lp6187
F85.61236624137929
aF110.20408171428569
aF13.017751692307685
atp6188
sS'5233'
p6189
((lp6190
(lp6191
F77.5
aa(lp6192
F38.182
aa(lp6193
F0.0
aa(lp6194
F90.17857142857143
aF96.69421490909087
aF0.0
atp6195
sS'5234'
p6196
((lp6197
(lp6198
F90.0
aa(lp6199
F70.0
aa(lp6200
F50.0
aa(lp6201
F0.0
aF0.0
aF0.0
atp6202
sS'5235'
p6203
((lp6204
(lp6205
F90.0
aa(lp6206
F90.0
aa(lp6207
F90.0
aa(lp6208
F0.0
aI0
aI0
atp6209
sS'5948'
p6210
((lp6211
(lp6212
F90.0
aa(lp6213
F70.0
aa(lp6214
F80.0
aa(lp6215
F0.0
aF0.0
aF0.0
atp6216
sS'5237'
p6217
((lp6218
(lp6219
F-0.0
aa(lp6220
F84.699
aa(lp6221
F44.894
aa(lp6222
F0.0
aF77.92132389156635
aF76.05251259574473
atp6223
sS'5784'
p6224
((lp6225
(lp6226
F86.667
aa(lp6227
F0.0
aa(lp6228
F100.0
aa(lp6229
F22.222222333333324
aF0.0
aF0.0
atp6230
sS'5785'
p6231
((lp6232
(lp6233
F90.0
aa(lp6234
F80.0
aa(lp6235
F90.0
aa(lp6236
F0.0
aF0.0
aI0
atp6237
sS'5786'
p6238
((lp6239
(lp6240
F90.0
aa(lp6241
F80.0
aa(lp6242
F90.0
aa(lp6243
F0.0
aF0.0
aI0
atp6244
sS'5787'
p6245
((lp6246
(lp6247
F90.0
aa(lp6248
F80.0
aa(lp6249
F90.0
aa(lp6250
F0.0
aF0.0
aI0
atp6251
sS'5869'
p6252
((lp6253
(lp6254
F87.054
aa(lp6255
F0.0
aa(lp6256
F40.4
aa(lp6257
F49.98713382178245
aF0.0
aF99.8399999999999
atp6258
sS'5868'
p6259
((lp6260
(lp6261
F90.0
aa(lp6262
F0.0
aa(lp6263
F90.0
aa(lp6264
F0.0
aF0.0
aI0
atp6265
sS'5782'
p6266
((lp6267
(lp6268
F70.175
aa(lp6269
F90.0
aa(lp6270
F48.431
aa(lp6271
F1.7236074561403472
aF0.0
aF28.91195707843139
atp6272
sS'5783'
p6273
((lp6274
(lp6275
F90.0
aa(lp6276
F40.0
aa(lp6277
F75.652
aa(lp6278
F0.0
aF314.2857142857143
aF24.5746692173913
atp6279
sS'5865'
p6280
((lp6281
(lp6282
F40.667
aa(lp6283
F83.577
aa(lp6284
F0.0
aa(lp6285
F99.5555556666668
aF82.82806768613148
aF0.0
atp6286
sS'5864'
p6287
((lp6288
(lp6289
F0.435
aa(lp6290
F82.216
aa(lp6291
F40.765
aa(lp6292
F7.057340942028987
aF87.39346197014932
aF107.56736785714281
atp6293
sS'5867'
p6294
((lp6295
(lp6296
F-0.0
aa(lp6297
F79.714
aa(lp6298
F40.127
aa(lp6299
F0.0
aF94.20408171428573
aF99.98397710126584
atp6300
sS'5866'
p6301
((lp6302
(lp6303
F67.778
aa(lp6304
F14.0
aa(lp6305
F90.0
aa(lp6306
F39.50617288888889
aF64.0
aF0.0
atp6307
sS'5861'
p6308
((lp6309
(lp6310
F-0.0
aa(lp6311
F88.71
aa(lp6312
F41.111
aa(lp6313
F0.0
aF24.14151935483869
aF98.76543211111111
atp6314
sS'5860'
p6315
((lp6316
(lp6317
F90.0
aa(lp6318
F38.75
aa(lp6319
F77.391
aa(lp6320
F0.0
aF285.9375
aF19.28166360869565
atp6321
sS'5863'
p6322
((lp6323
(lp6324
F98.394
aa(lp6325
F0.0
aa(lp6326
F54.2
aa(lp6327
F21.18824610101015
aF0.0
aF24.160000000000004
atp6328
sS'5918'
p6329
((lp6330
(lp6331
F90.0
aa(lp6332
F80.0
aa(lp6333
F80.0
aa(lp6334
F0.0
aF0.0
aI0
atp6335
sS'5949'
p6336
((lp6337
(lp6338
F89.951
aa(lp6339
F41.148
aa(lp6340
F70.0
aa(lp6341
F0.48779315686275027
aF211.97506412084562
aF0.0
atp6342
sS'5449'
p6343
((lp6344
(lp6345
F35.333
aa(lp6346
F0.0
aa(lp6347
F75.889
aa(lp6348
F78.22222233333332
aF0.0
aF139.8765432222222
atp6349
sS'5899'
p6350
((lp6351
(lp6352
F90.0
aa(lp6353
F90.0
aa(lp6354
F90.0
aa(lp6355
F0.0
aI0
aI0
atp6356
sS'5448'
p6357
((lp6358
(lp6359
F90.0
aa(lp6360
F80.0
aa(lp6361
F70.0
aa(lp6362
F0.0
aF0.0
aF0.0
atp6363
sS'5344'
p6364
((lp6365
(lp6366
F100.0
aa(lp6367
F0.0
aa(lp6368
F99.0
aa(lp6369
F0.0
aF0.0
aF0.0
atp6370
sS'5345'
p6371
((lp6372
(lp6373
F99.928
aa(lp6374
F9.083
aa(lp6375
F65.667
aa(lp6376
F1.1479587747747815
aF172.57638899999995
aF130.66666677777778
atp6377
sS'5346'
p6378
((lp6379
(lp6380
F81.299
aa(lp6381
F0.0
aa(lp6382
F42.333
aa(lp6383
F97.01467372727276
aF0.0
aF94.55555566666665
atp6384
sS'5347'
p6385
((lp6386
(lp6387
F59.492
aa(lp6388
F89.978
aa(lp6389
F23.864
aa(lp6390
F99.74145383050846
aF0.22172844444444434
aF146.43595054545466
atp6391
sS'5429'
p6392
((lp6393
(lp6394
F80.0
aa(lp6395
F90.0
aa(lp6396
F90.0
aa(lp6397
F0.0
aF0.0
aI0
atp6398
sS'5428'
p6399
((lp6400
(lp6401
F90.0
aa(lp6402
F30.0
aa(lp6403
F80.0
aa(lp6404
F0.0
aF0.0
aF0.0
atp6405
sS'5342'
p6406
((lp6407
(lp6408
F89.608
aa(lp6409
F18.75
aa(lp6410
F62.0
aa(lp6411
F3.767781647058819
aF210.9375
aF96.0
atp6412
sS'5343'
p6413
((lp6414
(lp6415
F90.0
aa(lp6416
F30.0
aa(lp6417
F90.0
aa(lp6418
F0.0
aF0.0
aI0
atp6419
sS'5425'
p6420
((lp6421
(lp6422
F33.22
aa(lp6423
F-0.0
aa(lp6424
F77.692
aa(lp6425
F54.036196610169554
aF0.0
aF79.28994092307693
atp6426
sS'5424'
p6427
((lp6428
(lp6429
F90.0
aa(lp6430
F90.0
aa(lp6431
F90.0
aa(lp6432
F0.0
aI0
aI0
atp6433
sS'5427'
p6434
((lp6435
(lp6436
F41.528
aa(lp6437
F0.95
aa(lp6438
F94.059
aa(lp6439
F214.28693494339623
aF13.811052631579045
aF102.87889276470592
atp6440
sS'5426'
p6441
((lp6442
(lp6443
F74.5
aa(lp6444
F42.5
aa(lp6445
F90.0
aa(lp6446
F24.75
aF93.75
aF0.0
atp6447
sS'5421'
p6448
((lp6449
(lp6450
F90.0
aa(lp6451
F80.0
aa(lp6452
F90.0
aa(lp6453
F0.0
aF0.0
aI0
atp6454
sS'5420'
p6455
((lp6456
(lp6457
F90.0
aa(lp6458
F90.0
aa(lp6459
F90.0
aa(lp6460
F0.0
aI0
aI0
atp6461
sS'5423'
p6462
((lp6463
(lp6464
F4.0
aa(lp6465
F87.699
aa(lp6466
F63.333
aa(lp6467
F104.0
aF17.714777991150477
aF88.88888899999999
atp6468
sS'5422'
p6469
((lp6470
(lp6471
F90.0
aa(lp6472
F0.0
aa(lp6473
F76.667
aa(lp6474
F0.0
aF0.0
aF22.222222333333335
atp6475
sS'5188'
p6476
((lp6477
(lp6478
F88.824
aa(lp6479
F0.0
aa(lp6480
F60.0
aa(lp6481
F10.380623058823529
aF0.0
aF100.0
atp6482
sS'5499'
p6483
((lp6484
(lp6485
F90.0
aa(lp6486
F-0.0
aa(lp6487
F32.857
aa(lp6488
F0.0
aF0.0
aF48.97959185714289
atp6489
sS'5440'
p6490
((lp6491
(lp6492
F90.0
aa(lp6493
F10.0
aa(lp6494
F70.0
aa(lp6495
F0.0
aF0.0
aF0.0
atp6496
sS'5768'
p6497
((lp6498
(lp6499
F85.278
aa(lp6500
F-0.0
aa(lp6501
F38.571
aa(lp6502
F72.1450617777778
aF0.0
aF97.95918385714288
atp6503
sS'5628'
p6504
((lp6505
(lp6506
F90.0
aa(lp6507
F80.0
aa(lp6508
F90.0
aa(lp6509
F0.0
aF0.0
aI0
atp6510
sS'5058'
p6511
((lp6512
(lp6513
F100.0
aa(lp6514
F0.456
aa(lp6515
F90.0
aa(lp6516
F0.0
aF0.4586026666666669
aF0.0
atp6517
sS'5769'
p6518
((lp6519
(lp6520
F90.0
aa(lp6521
F90.0
aa(lp6522
F90.0
aa(lp6523
F0.0
aI0
aI0
atp6524
sS'5649'
p6525
((lp6526
(lp6527
F77.571
aa(lp6528
F0.991
aa(lp6529
F96.91
aa(lp6530
F108.62585052380953
aF10.308323990654225
aF16.642437349397568
atp6531
sS'5648'
p6532
((lp6533
(lp6534
F63.637
aa(lp6535
F8.773
aa(lp6536
F96.719
aa(lp6537
F122.41053315094327
aF178.71144652577382
aF24.20543346891665
atp6538
sS'5522'
p6539
((lp6540
(lp6541
F88.462
aa(lp6542
F38.889
aa(lp6543
F0.0
aa(lp6544
F20.710059384615406
aF98.76543211111112
aF0.0
atp6545
sS'5523'
p6546
((lp6547
(lp6548
F89.196
aa(lp6549
F0.0
aa(lp6550
F46.667
aa(lp6551
F14.53284457142858
aF0.0
aF55.55555566666666
atp6552
sS'5524'
p6553
((lp6554
(lp6555
F89.75
aa(lp6556
F0.0
aa(lp6557
F60.909
aa(lp6558
F2.4375
aF0.0
aF99.17355372727273
atp6559
sS'5525'
p6560
((lp6561
(lp6562
F92.0
aa(lp6563
F42.5
aa(lp6564
F78.333
aa(lp6565
F16.0
aF68.75
aF13.888889
atp6566
sS'5526'
p6567
((lp6568
(lp6569
F4.231
aa(lp6570
F83.636
aa(lp6571
F51.0
aa(lp6572
F55.177514846153834
aF77.68595054545453
aF49.0
atp6573
sS'5527'
p6574
((lp6575
(lp6576
F0.0
aa(lp6577
F90.0
aa(lp6578
F0.0
aa(lp6579
I0
aF0.0
aF0.0
atp6580
sS'5641'
p6581
((lp6582
(lp6583
F87.371
aa(lp6584
F1.538
aa(lp6585
F43.8
aa(lp6586
F59.13218032584269
aF11.361783622641514
aF119.93142857142855
atp6587
sS'5640'
p6588
((lp6589
(lp6590
F84.167
aa(lp6591
F0.0
aa(lp6592
F41.111
aa(lp6593
F24.305555666666653
aF0.0
aF98.76543211111112
atp6594
sS'5643'
p6595
((lp6596
(lp6597
F83.529
aa(lp6598
F0.0
aa(lp6599
F38.0
aa(lp6600
F64.01384100000003
aF0.0
aF96.0
atp6601
sS'5642'
p6602
((lp6603
(lp6604
F90.0
aa(lp6605
F80.0
aa(lp6606
F90.0
aa(lp6607
F0.0
aF0.0
aI0
atp6608
sS'5645'
p6609
((lp6610
(lp6611
F90.0
aa(lp6612
F80.0
aa(lp6613
F90.0
aa(lp6614
F0.0
aF0.0
aI0
atp6615
sS'5644'
p6616
((lp6617
(lp6618
F84.231
aa(lp6619
F30.0
aa(lp6620
F50.0
aa(lp6621
F39.79289946153846
aF0.0
aF0.0
atp6622
sS'5647'
p6623
((lp6624
(lp6625
F90.041
aa(lp6626
F35.0
aa(lp6627
F70.0
aa(lp6628
F0.40485173170731914
aF75.0
aF0.0
atp6629
sS'5646'
p6630
((lp6631
(lp6632
F0.0
aa(lp6633
F85.644
aa(lp6634
F41.8
aa(lp6635
F0.0
aF68.15018154455457
aF96.75999999999988
atp6636
sS'5497'
p6637
((lp6638
(lp6639
F0.0
aa(lp6640
F80.667
aa(lp6641
F40.526
aa(lp6642
F0.0
aF86.22222233333333
aF99.72299178947371
atp6643
sS'5059'
p6644
((lp6645
(lp6646
F1.675
aa(lp6647
F72.086
aa(lp6648
F94.794
aa(lp6649
F36.07490210843371
aF99.56408171428573
aF28.354245523809542
atp6650
sS'5609'
p6651
((lp6652
(lp6653
F82.101
aa(lp6654
F0.0
aa(lp6655
F41.966
aa(lp6656
F109.03184805882344
aF0.0
aF96.13558335042745
atp6657
sS'5985'
p6658
((lp6659
(lp6660
F87.241
aa(lp6661
F7.273
aa(lp6662
F59.545
aa(lp6663
F40.66587410344829
aF147.1074380909091
aF95.24793409090911
atp6664
sS'5763'
p6665
((lp6666
(lp6667
F80.0
aa(lp6668
F90.0
aa(lp6669
F100.0
aa(lp6670
F0.0
aF0.0
aF0.0
atp6671
sS'5742'
p6672
((lp6673
(lp6674
F90.0
aa(lp6675
F80.0
aa(lp6676
F90.0
aa(lp6677
F0.0
aF0.0
aI0
atp6678
sS'5934'
p6679
((lp6680
(lp6681
F0.0
aa(lp6682
F87.222
aa(lp6683
F42.222
aa(lp6684
F0.0
aF47.83950622222222
aF95.06172844444447
atp6685
sS'5289'
p6686
((lp6687
(lp6688
F88.824
aa(lp6689
F-0.0
aa(lp6690
F36.154
aa(lp6691
F22.145328941176455
aF0.0
aF85.20710061538463
atp6692
sS'5288'
p6693
((lp6694
(lp6695
F90.0
aa(lp6696
F80.0
aa(lp6697
F90.0
aa(lp6698
F0.0
aF0.0
aI0
atp6699
sS'5162'
p6700
((lp6701
(lp6702
F90.0
aa(lp6703
F80.0
aa(lp6704
F90.0
aa(lp6705
F0.0
aF0.0
aI0
atp6706
sS'5163'
p6707
((lp6708
(lp6709
F0.0
aa(lp6710
F83.75
aa(lp6711
F38.889
aa(lp6712
F0.0
aF85.9375
aF98.76543211111112
atp6713
sS'5164'
p6714
((lp6715
(lp6716
F93.171
aa(lp6717
F0.0
aa(lp6718
F78.889
aa(lp6719
F21.65377758536585
aF0.0
aF9.876543222222226
atp6720
sS'5165'
p6721
((lp6722
(lp6723
F90.0
aa(lp6724
F80.0
aa(lp6725
F90.0
aa(lp6726
F0.0
aF0.0
aI0
atp6727
sS'5166'
p6728
((lp6729
(lp6730
F80.0
aa(lp6731
F90.0
aa(lp6732
F90.0
aa(lp6733
F0.0
aF0.0
aI0
atp6734
sS'5167'
p6735
((lp6736
(lp6737
F40.0
aa(lp6738
F81.724
aa(lp6739
F0.0
aa(lp6740
F100.0
aF59.0963139310345
aF0.0
atp6741
sS'5168'
p6742
((lp6743
(lp6744
F86.667
aa(lp6745
F22.5
aa(lp6746
F50.0
aa(lp6747
F44.44444455555555
aF168.75
aF0.0
atp6748
sS'5280'
p6749
((lp6750
(lp6751
F89.976
aa(lp6752
F21.429
aa(lp6753
F64.359
aa(lp6754
F0.24390118337407868
aF183.67346957142857
aF80.99934253846155
atp6755
sS'5283'
p6756
((lp6757
(lp6758
F0.769
aa(lp6759
F87.857
aa(lp6760
F40.0
aa(lp6761
F7.100591769230774
aF31.122448999999992
aF100.0
atp6762
sS'5282'
p6763
((lp6764
(lp6765
F97.333
aa(lp6766
F1.25
aa(lp6767
F51.25
aa(lp6768
F46.22222233333332
aF10.9375
aF210.9375
atp6769
sS'5285'
p6770
((lp6771
(lp6772
F42.414
aa(lp6773
F88.476
aa(lp6774
F-0.0
aa(lp6775
F94.1736028965517
aF23.39229028571416
aF0.0
atp6776
sS'5284'
p6777
((lp6778
(lp6779
F82.581
aa(lp6780
F-0.0
aa(lp6781
F40.0
aa(lp6782
F77.21123841935484
aF0.0
aF100.0
atp6783
sS'5287'
p6784
((lp6785
(lp6786
F10.588
aa(lp6787
F88.889
aa(lp6788
F50.0
aa(lp6789
F5.536332235294117
aF24.691358037037045
aF0.0
atp6790
sS'5286'
p6791
((lp6792
(lp6793
F90.0
aa(lp6794
F30.0
aa(lp6795
F50.0
aa(lp6796
F0.0
aF0.0
aF0.0
atp6797
sS'5735'
p6798
((lp6799
(lp6800
F80.588
aa(lp6801
F-0.0
aa(lp6802
F39.091
aa(lp6803
F99.65397929411768
aF0.0
aF99.17355372727273
atp6804
sS'5734'
p6805
((lp6806
(lp6807
F80.0
aa(lp6808
F90.0
aa(lp6809
F80.0
aa(lp6810
F0.0
aF0.0
aI0
atp6811
sS'5737'
p6812
((lp6813
(lp6814
F0.0
aa(lp6815
F87.143
aa(lp6816
F42.5
aa(lp6817
F0.0
aF48.97959185714287
aF93.75
atp6818
sS'5736'
p6819
((lp6820
(lp6821
F96.051
aa(lp6822
F0.244
aa(lp6823
F49.765
aa(lp6824
F31.07429330769227
aF2.379535999999996
aF222.06228382352938
atp6825
sS'5731'
p6826
((lp6827
(lp6828
F1.765
aa(lp6829
F64.762
aa(lp6830
F90.25
aa(lp6831
F49.82698970588235
aF77.32426304761897
aF2.4375
atp6832
sS'5730'
p6833
((lp6834
(lp6835
F55.0
aa(lp6836
F90.0
aa(lp6837
F0.0
aa(lp6838
F75.0
aF0.0
aF0.0
atp6839
sS'5733'
p6840
((lp6841
(lp6842
F90.0
aa(lp6843
F50.0
aa(lp6844
F80.0
aa(lp6845
F0.0
aF0.0
aF0.0
atp6846
sS'5732'
p6847
((lp6848
(lp6849
F90.0
aa(lp6850
F10.0
aa(lp6851
F70.0
aa(lp6852
F0.0
aF0.0
aF0.0
atp6853
sS'5047'
p6854
((lp6855
(lp6856
F0.0
aa(lp6857
F86.25
aa(lp6858
F41.429
aa(lp6859
F0.0
aF48.4375
aF97.95918385714288
atp6860
sS'5046'
p6861
((lp6862
(lp6863
F0.0
aa(lp6864
F68.812
aa(lp6865
F12.906
aa(lp6866
F0.0
aF360.9645034202896
aF42.8373146324786
atp6867
sS'5045'
p6868
((lp6869
(lp6870
F90.0
aa(lp6871
F80.0
aa(lp6872
F90.0
aa(lp6873
F0.0
aF0.0
aI0
atp6874
sS'5044'
p6875
((lp6876
(lp6877
F90.0
aa(lp6878
F80.0
aa(lp6879
F90.0
aa(lp6880
F0.0
aF0.0
aI0
atp6881
sS'5739'
p6882
((lp6883
(lp6884
F82.545
aa(lp6885
F25.714
aa(lp6886
F50.0
aa(lp6887
F44.429752272727285
aF110.20408171428572
aF0.0
atp6888
sS'5738'
p6889
((lp6890
(lp6891
F86.5
aa(lp6892
F-0.0
aa(lp6893
F36.667
aa(lp6894
F32.75
aF0.0
aF88.88888899999999
atp6895
sS'5041'
p6896
((lp6897
(lp6898
F-0.0
aa(lp6899
F84.173
aa(lp6900
F44.074
aa(lp6901
F0.0
aF81.86946856834524
aF83.40192044444441
atp6902
sS'5040'
p6903
((lp6904
(lp6905
F90.0
aa(lp6906
F90.0
aa(lp6907
F90.0
aa(lp6908
F0.0
aI0
aI0
atp6909
sS'5160'
p6910
((lp6911
(lp6912
F99.167
aa(lp6913
F79.368
aa(lp6914
F90.0
aa(lp6915
F3.4722223333333333
aF8.86426610526316
aF0.0
atp6916
sS'5638'
p6917
((lp6918
(lp6919
F80.0
aa(lp6920
F90.0
aa(lp6921
F90.0
aa(lp6922
F0.0
aF0.0
aI0
atp6923
sS'5639'
p6924
((lp6925
(lp6926
F22.742
aa(lp6927
F85.23
aa(lp6928
F50.0
aa(lp6929
F165.06243496774186
aF59.4299114942529
aF0.0
atp6930
sS'5634'
p6931
((lp6932
(lp6933
F89.574
aa(lp6934
F0.0
aa(lp6935
F30.0
aa(lp6936
F4.074241957446796
aF0.0
aF0.0
atp6937
sS'5635'
p6938
((lp6939
(lp6940
F20.0
aa(lp6941
F91.679
aa(lp6942
F76.0
aa(lp6943
F111.76470588235294
aF14.180135339622632
aF50.666666666666664
atp6944
sS'5636'
p6945
((lp6946
(lp6947
F90.0
aa(lp6948
F90.0
aa(lp6949
F90.0
aa(lp6950
F0.0
aI0
aI0
atp6951
sS'5637'
p6952
((lp6953
(lp6954
F54.0
aa(lp6955
F89.677
aa(lp6956
F0.0
aa(lp6957
F64.0
aF3.121748354838707
aF0.0
atp6958
sS'5630'
p6959
((lp6960
(lp6961
F55.784
aa(lp6962
F-0.0
aa(lp6963
F30.0
aa(lp6964
F119.48289129411802
aF0.0
aF0.0
atp6965
sS'5631'
p6966
((lp6967
(lp6968
F90.0
aa(lp6969
F70.0
aa(lp6970
F90.0
aa(lp6971
F0.0
aF0.0
aI0
atp6972
sS'5457'
p6973
((lp6974
(lp6975
F90.0
aa(lp6976
F90.0
aa(lp6977
F90.0
aa(lp6978
F0.0
aI0
aI0
atp6979
sS'5633'
p6980
((lp6981
(lp6982
F90.0
aa(lp6983
F80.0
aa(lp6984
F90.0
aa(lp6985
F0.0
aF0.0
aI0
atp6986
sS'5381'
p6987
((lp6988
(lp6989
F80.0
aa(lp6990
F0.0
aa(lp6991
F36.667
aa(lp6992
F100.0
aF0.0
aF88.88888899999999
atp6993
sS'5258'
p6994
((lp6995
(lp6996
F70.0
aa(lp6997
F90.0
aa(lp6998
F77.5
aa(lp6999
F0.0
aF0.0
aF6.25
atp7000
s.