(dp0
S'8200'
p1
((lp2
(lp3
F80.0
aa(lp4
F90.0
aa(lp5
F90.0
aa(lp6
F0.0
aF0.0
aI0
atp7
sS'8307'
p8
((lp9
(lp10
F59.565
aa(lp11
F98.923
aa(lp12
F6.182
aa(lp13
F101.289225
aF12.301775153846167
aF123.96694218181818
atp14
sS'8306'
p15
((lp16
(lp17
F90.0
aa(lp18
F50.0
aa(lp19
F80.0
aa(lp20
F0.0
aF0.0
aF0.0
atp21
sS'8305'
p22
((lp23
(lp24
F90.0
aa(lp25
F80.0
aa(lp26
F90.0
aa(lp27
F0.0
aF0.0
aI0
atp28
sS'8304'
p29
((lp30
(lp31
F0.0
aa(lp32
F100.0
aa(lp33
F90.0
aa(lp34
F0.0
aF0.0
aF0.0
atp35
sS'8303'
p36
((lp37
(lp38
F0.278
aa(lp39
F81.837
aa(lp40
F38.235
aa(lp41
F2.700617333333338
aF96.62640573469388
aF96.88581323529411
atp42
sS'8302'
p43
((lp44
(lp45
F89.928
aa(lp46
F67.368
aa(lp47
F5.0
aa(lp48
F5.06721298550724
aF45.70637136842102
aF125.0
atp49
sS'8301'
p50
((lp51
(lp52
F90.0
aa(lp53
F90.0
aa(lp54
F90.0
aa(lp55
F0.0
aI0
aI0
atp56
sS'8300'
p57
((lp58
(lp59
F89.13
aa(lp60
F3.333
aa(lp61
F64.4
aa(lp62
F7.939508695652169
aF88.88888899999999
aF80.63999999999997
atp63
sS'8251'
p64
((lp65
(lp66
F80.0
aa(lp67
F90.0
aa(lp68
F100.0
aa(lp69
F0.0
aF0.0
aF0.0
atp70
sS'8309'
p71
((lp72
(lp73
F90.0
aa(lp74
F80.0
aa(lp75
F90.0
aa(lp76
F0.0
aF0.0
aI0
atp77
sS'8308'
p78
((lp79
(lp80
F82.599
aa(lp81
F0.0
aa(lp82
F41.493
aa(lp83
F81.7908362422906
aF0.0
aF97.77233258208973
atp84
sS'8097'
p85
((lp86
(lp87
F90.0
aa(lp88
F80.0
aa(lp89
F90.0
aa(lp90
F0.0
aF0.0
aI0
atp91
sS'8096'
p92
((lp93
(lp94
F90.0
aa(lp95
F40.0
aa(lp96
F75.333
aa(lp97
F0.0
aF100.0
aF24.888888999999995
atp98
sS'8095'
p99
((lp100
(lp101
F90.0
aa(lp102
F70.0
aa(lp103
F50.0
aa(lp104
F0.0
aF0.0
aF0.0
atp105
sS'8094'
p106
((lp107
(lp108
F0.0
aa(lp109
F84.029
aa(lp110
F45.583
aa(lp111
F0.0
aF67.26384100000003
aF102.40972233333332
atp112
sS'8093'
p113
((lp114
(lp115
F35.833
aa(lp116
F88.632
aa(lp117
F0.0
aa(lp118
F82.63888900000002
aF25.48031288888884
aF0.0
atp119
sS'8092'
p120
((lp121
(lp122
F64.468
aa(lp123
F0.0
aa(lp124
F88.143
aa(lp125
F80.03621548936175
aF0.0
aF15.122448999999992
atp126
sS'8091'
p127
((lp128
(lp129
F90.0
aa(lp130
F80.0
aa(lp131
F80.0
aa(lp132
F0.0
aF0.0
aI0
atp133
sS'8090'
p134
((lp135
(lp136
F90.0
aa(lp137
F66.364
aa(lp138
F0.0
aa(lp139
F0.0
aF59.50413236363635
aF0.0
atp140
sS'8159'
p141
((lp142
(lp143
F91.333
aa(lp144
F35.0
aa(lp145
F79.231
aa(lp146
F11.555555666666658
aF225.0
aF7.100591769230767
atp147
sS'8099'
p148
((lp149
(lp150
F89.009
aa(lp151
F9.632
aa(lp152
F66.667
aa(lp153
F8.927846765765763
aF191.91689768421057
aF55.5555556666667
atp154
sS'8098'
p155
((lp156
(lp157
F82.5
aa(lp158
F45.0
aa(lp159
F70.0
aa(lp160
F18.75
aF75.0
aF0.0
atp161
sS'8156'
p162
((lp163
(lp164
F-0.0
aa(lp165
F89.677
aa(lp166
F30.0
aa(lp167
F0.0
aF5.27228598924731
aF0.0
atp168
sS'8909'
p169
((lp170
(lp171
F63.353
aa(lp172
F90.0
aa(lp173
F29.214
aa(lp174
F88.75778547058846
aF0.0
aF22.973795999999673
atp175
sS'8908'
p176
((lp177
(lp178
F90.0
aa(lp179
F80.0
aa(lp180
F100.0
aa(lp181
F0.0
aF0.0
aF0.0
atp182
sS'8157'
p183
((lp184
(lp185
F0.0
aa(lp186
F80.247
aa(lp187
F45.789
aa(lp188
F0.0
aF93.7661941851852
aF87.53462626315785
atp189
sS'8905'
p190
((lp191
(lp192
F1.818
aa(lp193
F65.556
aa(lp194
F90.0
aa(lp195
F14.876033090909097
aF69.13580266666666
aF0.0
atp196
sS'8904'
p197
((lp198
(lp199
F0.0
aa(lp200
F85.0
aa(lp201
F45.0
aa(lp202
F0.0
aF75.0
aF75.0
atp203
sS'8907'
p204
((lp205
(lp206
F80.0
aa(lp207
F90.25
aa(lp208
F60.0
aa(lp209
F0.0
aF2.4375
aF0.0
atp210
sS'8906'
p211
((lp212
(lp213
F90.0
aa(lp214
F0.0
aa(lp215
F0.0
aa(lp216
F0.0
aI0
aF0.0
atp217
sS'8901'
p218
((lp219
(lp220
F97.398
aa(lp221
F0.0
aa(lp222
F78.636
aa(lp223
F18.064850601941764
aF0.0
aF41.56473842424242
atp224
sS'8900'
p225
((lp226
(lp227
F80.0
aa(lp228
F90.0
aa(lp229
F80.0
aa(lp230
F0.0
aF0.0
aI0
atp231
sS'8903'
p232
((lp233
(lp234
F72.913
aa(lp235
F-0.0
aa(lp236
F94.773
aa(lp237
F111.38374291304352
aF0.0
aF28.3574380909091
atp238
sS'8902'
p239
((lp240
(lp241
F-0.0
aa(lp242
F89.211
aa(lp243
F32.222
aa(lp244
F0.0
aF15.166205210526321
aF39.50617288888892
atp245
sS'8155'
p246
((lp247
(lp248
F90.0
aa(lp249
F80.0
aa(lp250
F90.0
aa(lp251
F0.0
aF0.0
aI0
atp252
sS'8620'
p253
((lp254
(lp255
F80.0
aa(lp256
F90.0
aa(lp257
F90.0
aa(lp258
F0.0
aF0.0
aI0
atp259
sS'8153'
p260
((lp261
(lp262
F86.875
aa(lp263
F0.0
aa(lp264
F50.0
aa(lp265
F21.484375
aF0.0
aF0.0
atp266
sS'8150'
p267
((lp268
(lp269
F90.0
aa(lp270
F100.0
aa(lp271
F90.0
aa(lp272
F0.0
aF0.0
aI0
atp273
sS'8151'
p274
((lp275
(lp276
F80.0
aa(lp277
F90.0
aa(lp278
F90.0
aa(lp279
F0.0
aF0.0
aI0
atp280
sS'8233'
p281
((lp282
(lp283
F90.0
aa(lp284
F80.0
aa(lp285
F90.0
aa(lp286
F0.0
aF0.0
aI0
atp287
sS'8232'
p288
((lp289
(lp290
F89.723
aa(lp291
F46.0
aa(lp292
F0.0
aa(lp293
F3.3835802110726636
aF64.0
aF0.0
atp294
sS'8231'
p295
((lp296
(lp297
F86.97
aa(lp298
F0.0
aa(lp299
F60.0
aa(lp300
F21.120293939393935
aF0.0
aF100.0
atp301
sS'8230'
p302
((lp303
(lp304
F90.0
aa(lp305
F80.0
aa(lp306
F90.0
aa(lp307
F0.0
aF0.0
aI0
atp308
sS'8237'
p309
((lp310
(lp311
F90.0
aa(lp312
F80.0
aa(lp313
F90.0
aa(lp314
F0.0
aF0.0
aI0
atp315
sS'8236'
p316
((lp317
(lp318
F92.8
aa(lp319
F2.0
aa(lp320
F60.0
aa(lp321
F78.16
aF36.0
aF66.66666666666667
atp322
sS'8235'
p323
((lp324
(lp325
F90.0
aa(lp326
F80.0
aa(lp327
F90.0
aa(lp328
F0.0
aF0.0
aI0
atp329
sS'8234'
p330
((lp331
(lp332
F90.0
aa(lp333
F80.0
aa(lp334
F90.0
aa(lp335
F0.0
aF0.0
aI0
atp336
sS'8602'
p337
((lp338
(lp339
F64.629
aa(lp340
F21.316
aa(lp341
F89.843
aa(lp342
F78.57632671428587
aF185.110803368421
aF1.5500033307086658
atp343
sS'8603'
p344
((lp345
(lp346
F90.0
aa(lp347
F80.0
aa(lp348
F90.0
aa(lp349
F0.0
aF0.0
aI0
atp350
sS'8239'
p351
((lp352
(lp353
F0.0
aa(lp354
F77.992
aa(lp355
F42.451
aa(lp356
F0.0
aF93.87440709623398
aF95.68418973239378
atp357
sS'8238'
p358
((lp359
(lp360
F0.0
aa(lp361
F84.545
aa(lp362
F48.182
aa(lp363
F0.0
aF67.21763106060601
aF33.05785127272726
atp364
sS'8606'
p365
((lp366
(lp367
F40.0
aa(lp368
F0.0
aa(lp369
F80.0
aa(lp370
F100.0
aF0.0
aF100.0
atp371
sS'8607'
p372
((lp373
(lp374
F90.0
aa(lp375
F80.0
aa(lp376
F80.0
aa(lp377
F0.0
aF0.0
aI0
atp378
sS'8604'
p379
((lp380
(lp381
F0.175
aa(lp382
F92.683
aa(lp383
F55.789
aa(lp384
F1.723607456140351
aF39.143367048780476
aF77.00831047368418
atp385
sS'8605'
p386
((lp387
(lp388
F90.0
aa(lp389
F80.0
aa(lp390
F90.0
aa(lp391
F0.0
aF0.0
aI0
atp392
sS'8023'
p393
((lp394
(lp395
F90.0
aa(lp396
F80.0
aa(lp397
F90.0
aa(lp398
F0.0
aF0.0
aI0
atp399
sS'8589'
p400
((lp401
(lp402
F87.963
aa(lp403
F0.0
aa(lp404
F39.6
aa(lp405
F31.03566529629627
aF0.0
aF99.83999999999996
atp406
sS'8588'
p407
((lp408
(lp409
F62.727
aa(lp410
F90.0
aa(lp411
F20.0
aa(lp412
F92.56198354545455
aF0.0
aF200.0
atp413
sS'8858'
p414
((lp415
(lp416
F80.0
aa(lp417
F90.0
aa(lp418
F80.0
aa(lp419
F0.0
aF0.0
aI0
atp420
sS'8206'
p421
((lp422
(lp423
F90.453
aa(lp424
F1.593
aa(lp425
F63.107
aa(lp426
F50.668071318840354
aF40.522096949527295
aF87.13137757142833
atp427
sS'8738'
p428
((lp429
(lp430
F41.724
aa(lp431
F85.43
aa(lp432
F0.0
aa(lp433
F97.02734841379304
aF64.54980066225158
aF0.0
atp434
sS'8739'
p435
((lp436
(lp437
F59.167
aa(lp438
F90.0
aa(lp439
F23.077
aa(lp440
F99.30555566666665
aF0.0
aF159.76331361538462
atp441
sS'8736'
p442
((lp443
(lp444
F85.882
aa(lp445
F42.0
aa(lp446
F0.0
aa(lp447
F35.986159294117634
aF96.0
aF0.0
atp448
sS'8737'
p449
((lp450
(lp451
F90.0
aa(lp452
F47.917
aa(lp453
F70.0
aa(lp454
F0.0
aF37.32638899999995
aF0.0
atp455
sS'8734'
p456
((lp457
(lp458
F76.259
aa(lp459
F0.085
aa(lp460
F44.483
aa(lp461
F88.48834025925929
aF0.8402758474576294
aF79.90487520689636
atp462
sS'8735'
p463
((lp464
(lp465
F84.855
aa(lp466
F42.518
aa(lp467
F-0.0
aa(lp468
F76.42600892282947
aF93.65974846043164
aF0.0
atp469
sS'8732'
p470
((lp471
(lp472
F0.0
aa(lp473
F70.0
aa(lp474
F90.0
aa(lp475
F0.0
aF0.0
aF0.0
atp476
sS'8733'
p477
((lp478
(lp479
F71.667
aa(lp480
F90.0
aa(lp481
F43.333
aa(lp482
F13.888888999999992
aF0.0
aF88.88888899999999
atp483
sS'8730'
p484
((lp485
(lp486
F90.0
aa(lp487
F80.0
aa(lp488
F90.0
aa(lp489
F0.0
aF0.0
aI0
atp490
sS'8731'
p491
((lp492
(lp493
F100.0
aa(lp494
F80.0
aa(lp495
F90.0
aa(lp496
F0.0
aF0.0
aF0.0
atp497
sS'8040'
p498
((lp499
(lp500
F0.0
aa(lp501
F87.833
aa(lp502
F30.0
aa(lp503
F0.0
aF30.305555666666688
aF0.0
atp504
sS'8041'
p505
((lp506
(lp507
F38.0
aa(lp508
F75.0
aa(lp509
F0.0
aa(lp510
F96.0
aF50.0
aF0.0
atp511
sS'8042'
p512
((lp513
(lp514
F82.5
aa(lp515
F0.0
aa(lp516
F42.0
aa(lp517
F93.75
aF0.0
aF96.0
atp518
sS'8043'
p519
((lp520
(lp521
F56.667
aa(lp522
F0.0
aa(lp523
F100.0
aa(lp524
F88.88888899999999
aF0.0
aF0.0
atp525
sS'8044'
p526
((lp527
(lp528
F80.0
aa(lp529
F90.0
aa(lp530
F90.0
aa(lp531
F0.0
aF0.0
aI0
atp532
sS'8045'
p533
((lp534
(lp535
F97.59
aa(lp536
F8.0
aa(lp537
F69.506
aa(lp538
F18.293228205128262
aF116.0
aF128.1511964938272
atp539
sS'8046'
p540
((lp541
(lp542
F90.0
aa(lp543
F80.0
aa(lp544
F90.0
aa(lp545
F0.0
aF0.0
aI0
atp546
sS'8047'
p547
((lp548
(lp549
F27.5
aa(lp550
F72.222
aa(lp551
F50.0
aa(lp552
F68.75
aF39.50617288888889
aF0.0
atp553
sS'8048'
p554
((lp555
(lp556
F90.0
aa(lp557
F20.0
aa(lp558
F68.333
aa(lp559
F0.0
aF200.0
aF30.555555666666663
atp560
sS'8049'
p561
((lp562
(lp563
F90.0
aa(lp564
F80.0
aa(lp565
F90.0
aa(lp566
F0.0
aF0.0
aI0
atp567
sS'8864'
p568
((lp569
(lp570
F80.0
aa(lp571
F90.0
aa(lp572
F90.0
aa(lp573
F0.0
aF0.0
aI0
atp574
sS'8518'
p575
((lp576
(lp577
F80.0
aa(lp578
F90.0
aa(lp579
F90.0
aa(lp580
F0.0
aF0.0
aI0
atp581
sS'8519'
p582
((lp583
(lp584
F90.0
aa(lp585
F0.0
aa(lp586
F0.0
aa(lp587
F0.0
aF0.0
aI0
atp588
sS'8286'
p589
((lp590
(lp591
F0.0
aa(lp592
F43.754
aa(lp593
F70.566
aa(lp594
F0.0
aF85.90600156078106
aF10.883577690590228
atp595
sS'8287'
p596
((lp597
(lp598
F100.0
aa(lp599
F50.0
aa(lp600
F90.0
aa(lp601
F0.0
aF0.0
aF0.0
atp602
sS'8284'
p603
((lp604
(lp605
F88.235
aa(lp606
F-0.0
aa(lp607
F30.0
aa(lp608
F26.297577941176474
aF0.0
aF0.0
atp609
sS'8285'
p610
((lp611
(lp612
F80.0
aa(lp613
F90.0
aa(lp614
F100.0
aa(lp615
F0.0
aF0.0
aF0.0
atp616
sS'8282'
p617
((lp618
(lp619
F70.0
aa(lp620
F50.0
aa(lp621
F30.0
aa(lp622
F0.0
aF0.0
aF0.0
atp623
sS'8283'
p624
((lp625
(lp626
F90.0
aa(lp627
F70.0
aa(lp628
F70.0
aa(lp629
F0.0
aF0.0
aI0
atp630
sS'8280'
p631
((lp632
(lp633
F90.0
aa(lp634
F80.0
aa(lp635
F90.0
aa(lp636
F0.0
aF0.0
aI0
atp637
sS'8281'
p638
((lp639
(lp640
F80.0
aa(lp641
F90.0
aa(lp642
F70.0
aa(lp643
F0.0
aF0.0
aF0.0
atp644
sS'8127'
p645
((lp646
(lp647
F88.694
aa(lp648
F0.976
aa(lp649
F43.272
aa(lp650
F46.64307140669861
aF14.959750603174568
aF95.72870004938261
atp651
sS'8126'
p652
((lp653
(lp654
F73.214
aa(lp655
F0.0
aa(lp656
F42.273
aa(lp657
F53.954081714285714
aF0.0
aF94.83471081818185
atp658
sS'8125'
p659
((lp660
(lp661
F90.0
aa(lp662
F80.0
aa(lp663
F90.0
aa(lp664
F0.0
aF0.0
aI0
atp665
sS'8124'
p666
((lp667
(lp668
F90.0
aa(lp669
F80.0
aa(lp670
F90.0
aa(lp671
F0.0
aF0.0
aI0
atp672
sS'8123'
p673
((lp674
(lp675
F100.0
aa(lp676
F0.588
aa(lp677
F87.881
aa(lp678
F0.0
aF17.301038117647053
aF43.926041597014944
atp679
sS'8122'
p680
((lp681
(lp682
F83.667
aa(lp683
F0.0
aa(lp684
F46.667
aa(lp685
F26.555555666666674
aF0.0
aF55.55555566666666
atp686
sS'8121'
p687
((lp688
(lp689
F90.079
aa(lp690
F99.905
aa(lp691
F78.182
aa(lp692
F0.23060942105263182
aF0.18140595238095236
aF42.14876036363636
atp693
sS'8120'
p694
((lp695
(lp696
F90.0
aa(lp697
F50.0
aa(lp698
F75.0
aa(lp699
F0.0
aF0.0
aF25.0
atp700
sS'8358'
p701
((lp702
(lp703
F90.0
aa(lp704
F80.0
aa(lp705
F90.0
aa(lp706
F0.0
aF0.0
aI0
atp707
sS'8860'
p708
((lp709
(lp710
F-0.0
aa(lp711
F96.25
aa(lp712
F80.0
aa(lp713
F0.0
aF23.4375
aF0.0
atp714
sS'8359'
p715
((lp716
(lp717
F90.0
aa(lp718
F80.0
aa(lp719
F80.0
aa(lp720
F0.0
aF0.0
aI0
atp721
sS'8938'
p722
((lp723
(lp724
F0.0
aa(lp725
F74.681
aa(lp726
F41.556
aa(lp727
F0.0
aF67.45133546808512
aF97.58024711111108
atp728
sS'8861'
p729
((lp730
(lp731
F87.963
aa(lp732
F63.0
aa(lp733
F100.0
aa(lp734
F16.22085048148147
aF81.0
aF0.0
atp735
sS'8939'
p736
((lp737
(lp738
F89.343
aa(lp739
F0.0
aa(lp740
F31.429
aa(lp741
F11.977196445255512
aF0.0
aF26.53061242857142
atp742
sS'8361'
p743
((lp744
(lp745
F0.0
aa(lp746
F89.841
aa(lp747
F35.833
aa(lp748
F0.0
aF17.43512226984125
aF82.63888900000005
atp749
sS'8545'
p750
((lp751
(lp752
F90.0
aa(lp753
F80.0
aa(lp754
F90.0
aa(lp755
F0.0
aF0.0
aI0
atp756
sS'8451'
p757
((lp758
(lp759
F79.286
aa(lp760
F50.0
aa(lp761
F90.0
aa(lp762
F6.632653142857139
aF0.0
aF0.0
atp763
sS'8462'
p764
((lp765
(lp766
F90.0
aa(lp767
F50.0
aa(lp768
F77.647
aa(lp769
F0.0
aF0.0
aF17.993079588235297
atp770
sS'8463'
p771
((lp772
(lp773
F90.0
aa(lp774
F80.0
aa(lp775
F90.0
aa(lp776
F0.0
aF0.0
aI0
atp777
sS'8349'
p778
((lp779
(lp780
F90.0
aa(lp781
F0.0
aa(lp782
F80.0
aa(lp783
F0.0
aF0.0
aF0.0
atp784
sS'8348'
p785
((lp786
(lp787
F-0.0
aa(lp788
F37.161
aa(lp789
F80.377
aa(lp790
F0.0
aF92.06977317391548
aF100.09344975471721
atp791
sS'8466'
p792
((lp793
(lp794
F90.0
aa(lp795
F80.0
aa(lp796
F80.0
aa(lp797
F0.0
aF0.0
aI0
atp798
sS'8467'
p799
((lp800
(lp801
F90.0
aa(lp802
F90.0
aa(lp803
F90.0
aa(lp804
F0.0
aI0
aI0
atp805
sS'8464'
p806
((lp807
(lp808
F90.0
aa(lp809
F50.0
aa(lp810
F78.333
aa(lp811
F0.0
aF0.0
aF13.888888999999992
atp812
sS'8465'
p813
((lp814
(lp815
F90.0
aa(lp816
F80.0
aa(lp817
F90.0
aa(lp818
F0.0
aF0.0
aI0
atp819
sS'8343'
p820
((lp821
(lp822
F93.033
aa(lp823
F48.889
aa(lp824
F70.25
aa(lp825
F21.015555666666653
aF20.98765433333333
aF2.4375
atp826
sS'8342'
p827
((lp828
(lp829
F59.252
aa(lp830
F89.589
aa(lp831
F20.204
aa(lp832
F99.44004821768695
aF3.9407018219177954
aF197.91753436734692
atp833
sS'8341'
p834
((lp835
(lp836
F85.926
aa(lp837
F40.769
aa(lp838
F0.0
aa(lp839
F24.142661185185187
aF99.4082840769231
aF0.0
atp840
sS'8340'
p841
((lp842
(lp843
F3.943
aa(lp844
F89.552
aa(lp845
F56.2
aa(lp846
F20.65717352830188
aF41.488704000000006
aF72.16000000000001
atp847
sS'8347'
p848
((lp849
(lp850
F0.0
aa(lp851
F86.667
aa(lp852
F40.0
aa(lp853
F0.0
aF55.55555566666666
aF100.0
atp854
sS'8346'
p855
((lp856
(lp857
F90.0
aa(lp858
F-0.0
aa(lp859
F80.0
aa(lp860
F0.0
aF0.0
aF0.0
atp861
sS'8345'
p862
((lp863
(lp864
F90.0
aa(lp865
F80.0
aa(lp866
F90.0
aa(lp867
F0.0
aF0.0
aI0
atp868
sS'8344'
p869
((lp870
(lp871
F90.0
aa(lp872
F0.0
aa(lp873
F35.0
aa(lp874
F0.0
aF0.0
aF75.0
atp875
sS'8192'
p876
((lp877
(lp878
F75.0
aa(lp879
F90.0
aa(lp880
F50.0
aa(lp881
F25.0
aF0.0
aF0.0
atp882
sS'8940'
p883
((lp884
(lp885
F90.741
aa(lp886
F80.0
aa(lp887
F70.0
aa(lp888
F6.858710629629631
aF0.0
aF0.0
atp889
sS'8190'
p890
((lp891
(lp892
F90.841
aa(lp893
F0.0
aa(lp894
F72.625
aa(lp895
F7.703729598130827
aF0.0
aF20.734375
atp896
sS'8191'
p897
((lp898
(lp899
F90.0
aa(lp900
F80.0
aa(lp901
F90.0
aa(lp902
F0.0
aF0.0
aI0
atp903
sS'8196'
p904
((lp905
(lp906
F90.0
aa(lp907
F80.0
aa(lp908
F90.0
aa(lp909
F0.0
aF0.0
aI0
atp910
sS'8197'
p911
((lp912
(lp913
F90.0
aa(lp914
F80.0
aa(lp915
F90.0
aa(lp916
F0.0
aF0.0
aI0
atp917
sS'8194'
p918
((lp919
(lp920
F90.0
aa(lp921
F80.0
aa(lp922
F80.0
aa(lp923
F0.0
aF0.0
aI0
atp924
sS'8195'
p925
((lp926
(lp927
F75.0
aa(lp928
F50.0
aa(lp929
F90.0
aa(lp930
F25.0
aF0.0
aF0.0
atp931
sS'8949'
p932
((lp933
(lp934
F80.0
aa(lp935
F90.0
aa(lp936
F80.0
aa(lp937
F0.0
aF0.0
aI0
atp938
sS'8948'
p939
((lp940
(lp941
F90.0
aa(lp942
F50.0
aa(lp943
F76.0
aa(lp944
F0.0
aF0.0
aF24.0
atp945
sS'8198'
p946
((lp947
(lp948
F90.0
aa(lp949
F80.0
aa(lp950
F90.0
aa(lp951
F0.0
aF0.0
aI0
atp952
sS'8199'
p953
((lp954
(lp955
F0.0
aa(lp956
F86.32
aa(lp957
F99.0
aa(lp958
F0.0
aF33.82158781725899
aF4.661710037174721
atp959
sS'8356'
p960
((lp961
(lp962
F80.0
aa(lp963
F90.0
aa(lp964
F90.0
aa(lp965
F0.0
aF0.0
aI0
atp966
sS'8357'
p967
((lp968
(lp969
F90.0
aa(lp970
F80.0
aa(lp971
F90.0
aa(lp972
F0.0
aF0.0
aI0
atp973
sS'8025'
p974
((lp975
(lp976
F90.0
aa(lp977
F0.0
aa(lp978
F80.0
aa(lp979
F0.0
aF0.0
aF0.0
atp980
sS'8651'
p981
((lp982
(lp983
F66.688
aa(lp984
F90.817
aa(lp985
F17.2
aa(lp986
F76.37038296103883
aF7.5024563202614045
aF200.16000000000008
atp987
sS'8955'
p988
((lp989
(lp990
F77.2
aa(lp991
F39.5
aa(lp992
F90.714
aa(lp993
F31.360000000000003
aF110.25
aF6.632653142857139
atp994
sS'8942'
p995
((lp996
(lp997
F90.0
aa(lp998
F90.0
aa(lp999
F90.0
aa(lp1000
F0.0
aI0
aI0
atp1001
sS'8650'
p1002
((lp1003
(lp1004
F-0.0
aa(lp1005
F80.0
aa(lp1006
F90.0
aa(lp1007
F0.0
aF0.0
aF0.0
atp1008
sS'8408'
p1009
((lp1010
(lp1011
F85.294
aa(lp1012
F0.0
aa(lp1013
F50.0
aa(lp1014
F24.91349482352942
aF0.0
aF0.0
atp1015
sS'8950'
p1016
((lp1017
(lp1018
F90.0
aa(lp1019
F90.0
aa(lp1020
F90.0
aa(lp1021
F0.0
aI0
aI0
atp1022
sS'8409'
p1023
((lp1024
(lp1025
F90.0
aa(lp1026
F80.0
aa(lp1027
F90.0
aa(lp1028
F0.0
aF0.0
aI0
atp1029
sS'8898'
p1030
((lp1031
(lp1032
F0.048
aa(lp1033
F82.516
aa(lp1034
F39.693
aa(lp1035
F0.8269640284494978
aF154.05244434080754
aF99.64551336781598
atp1036
sS'8108'
p1037
((lp1038
(lp1039
F83.039
aa(lp1040
F45.135
aa(lp1041
F-0.0
aa(lp1042
F89.66148785082858
aF73.63038716216225
aF0.0
atp1043
sS'8934'
p1044
((lp1045
(lp1046
F90.0
aa(lp1047
F5.455
aa(lp1048
F66.667
aa(lp1049
F0.0
aF133.88429772727275
aF55.55555566666666
atp1050
sS'8935'
p1051
((lp1052
(lp1053
F90.0
aa(lp1054
F0.0
aa(lp1055
F80.0
aa(lp1056
F0.0
aF0.0
aF0.0
atp1057
sS'8936'
p1058
((lp1059
(lp1060
F0.042
aa(lp1061
F94.058
aa(lp1062
F52.812
aa(lp1063
F0.6636635765275453
aF61.79374081159417
aF88.964844
atp1064
sS'8937'
p1065
((lp1066
(lp1067
F0.0
aa(lp1068
F81.667
aa(lp1069
F50.0
aa(lp1070
F0.0
aF13.888889
aF0.0
atp1071
sS'8839'
p1072
((lp1073
(lp1074
F96.0
aa(lp1075
F0.286
aa(lp1076
F80.0
aa(lp1077
F24.0
aF2.7755102857142844
aF0.0
atp1078
sS'8838'
p1079
((lp1080
(lp1081
F64.462
aa(lp1082
F98.564
aa(lp1083
F2.832
aa(lp1084
F80.97976658064519
aF13.955041454545485
aF54.3455324112149
atp1085
sS'8932'
p1086
((lp1087
(lp1088
F90.0
aa(lp1089
F90.0
aa(lp1090
F90.0
aa(lp1091
F0.0
aI0
aI0
atp1092
sS'8933'
p1093
((lp1094
(lp1095
F0.0
aa(lp1096
F90.0
aa(lp1097
F70.0
aa(lp1098
F0.0
aF0.0
aF0.0
atp1099
sS'8835'
p1100
((lp1101
(lp1102
F80.0
aa(lp1103
F90.0
aa(lp1104
F90.0
aa(lp1105
F0.0
aF0.0
aI0
atp1106
sS'8834'
p1107
((lp1108
(lp1109
F60.539
aa(lp1110
F23.294
aa(lp1111
F89.807
aa(lp1112
F99.70956291616761
aF156.2076124705881
aF1.89502677777777
atp1113
sS'8837'
p1114
((lp1115
(lp1116
F88.75
aa(lp1117
F0.0
aa(lp1118
F40.0
aa(lp1119
F17.1875
aF0.0
aF100.0
atp1120
sS'8836'
p1121
((lp1122
(lp1123
F0.25
aa(lp1124
F96.667
aa(lp1125
F80.0
aa(lp1126
F0.1875
aF22.222222333333335
aF0.0
atp1127
sS'8831'
p1128
((lp1129
(lp1130
F90.0
aa(lp1131
F80.0
aa(lp1132
F90.0
aa(lp1133
F0.0
aF0.0
aI0
atp1134
sS'8830'
p1135
((lp1136
(lp1137
F90.789
aa(lp1138
F0.0
aa(lp1139
F80.0
aa(lp1140
F7.271468368421057
aF0.0
aF0.0
atp1141
sS'8833'
p1142
((lp1143
(lp1144
F0.0
aa(lp1145
F85.455
aa(lp1146
F42.0
aa(lp1147
F0.0
aF68.42975227272724
aF96.0
atp1148
sS'8832'
p1149
((lp1150
(lp1151
F90.0
aa(lp1152
F90.0
aa(lp1153
F90.0
aa(lp1154
F0.0
aI0
aI0
atp1155
sS'8894'
p1156
((lp1157
(lp1158
F90.0
aa(lp1159
F80.0
aa(lp1160
F90.0
aa(lp1161
F0.0
aF0.0
aI0
atp1162
sS'8891'
p1163
((lp1164
(lp1165
F-0.0
aa(lp1166
F88.2
aa(lp1167
F30.0
aa(lp1168
F0.0
aF30.760000000000005
aF0.0
atp1169
sS'8890'
p1170
((lp1171
(lp1172
F71.528
aa(lp1173
F50.0
aa(lp1174
F22.277
aa(lp1175
F27.417981158081894
aF0.0
aF172.04195672277217
atp1176
sS'8512'
p1177
((lp1178
(lp1179
F80.0
aa(lp1180
F90.0
aa(lp1181
F80.0
aa(lp1182
F0.0
aF0.0
aI0
atp1183
sS'8406'
p1184
((lp1185
(lp1186
F50.0
aa(lp1187
F73.182
aa(lp1188
F25.2
aa(lp1189
F0.0
aF48.9669421818182
aF120.95999999999997
atp1190
sS'8407'
p1191
((lp1192
(lp1193
F61.948
aa(lp1194
F14.211
aa(lp1195
F90.093
aa(lp1196
F96.20509361038953
aF224.37673152631587
aF0.9173527037037061
atp1197
sS'8163'
p1198
((lp1199
(lp1200
F62.551
aa(lp1201
F90.132
aa(lp1202
F23.824
aa(lp1203
F93.49229487755127
aF7.877423999999995
aF147.14532894117613
atp1204
sS'8162'
p1205
((lp1206
(lp1207
F90.0
aa(lp1208
F-0.0
aa(lp1209
F90.0
aa(lp1210
I0
aF0.0
aF0.0
atp1211
sS'8161'
p1212
((lp1213
(lp1214
F61.864
aa(lp1215
F14.143
aa(lp1216
F89.907
aa(lp1217
F96.52398752542365
aF224.26530614285738
aF1.843278629629622
atp1218
sS'8160'
p1219
((lp1220
(lp1221
F90.0
aa(lp1222
F90.0
aa(lp1223
F90.0
aa(lp1224
F0.0
aI0
aI0
atp1225
sS'8167'
p1226
((lp1227
(lp1228
F39.574
aa(lp1229
F80.85
aa(lp1230
F0.0
aa(lp1231
F99.81892280851052
aF99.27805555555545
aF0.0
atp1232
sS'8166'
p1233
((lp1234
(lp1235
F90.0
aa(lp1236
F80.0
aa(lp1237
F90.0
aa(lp1238
F0.0
aF0.0
aI0
atp1239
sS'8165'
p1240
((lp1241
(lp1242
F61.228
aa(lp1243
F22.308
aa(lp1244
F89.869
aa(lp1245
F98.49184364912269
aF171.5976332307692
aF1.2917683298429228
atp1246
sS'8164'
p1247
((lp1248
(lp1249
F88.919
aa(lp1250
F0.0
aa(lp1251
F43.684
aa(lp1252
F20.452885324324296
aF0.0
aF86.42659284210522
atp1253
sS'8169'
p1254
((lp1255
(lp1256
F-0.0
aa(lp1257
F87.468
aa(lp1258
F45.385
aa(lp1259
F0.0
aF44.22368222784812
aF71.0059173076923
atp1260
sS'8168'
p1261
((lp1262
(lp1263
F90.0
aa(lp1264
F0.0
aa(lp1265
F90.0
aa(lp1266
F0.0
aF0.0
aI0
atp1267
sS'8798'
p1268
((lp1269
(lp1270
F90.357
aa(lp1271
F45.0
aa(lp1272
F78.333
aa(lp1273
F3.443877571428571
aF25.0
aF13.888889
atp1274
sS'8799'
p1275
((lp1276
(lp1277
F90.0
aa(lp1278
F90.0
aa(lp1279
F90.0
aa(lp1280
F0.0
aI0
aI0
atp1281
sS'8248'
p1282
((lp1283
(lp1284
F-0.0
aa(lp1285
F90.0
aa(lp1286
F50.0
aa(lp1287
F0.0
aF0.0
aF0.0
atp1288
sS'8249'
p1289
((lp1290
(lp1291
F90.0
aa(lp1292
F80.0
aa(lp1293
F90.0
aa(lp1294
F0.0
aF0.0
aI0
atp1295
sS'8680'
p1296
((lp1297
(lp1298
F55.556
aa(lp1299
F0.0
aa(lp1300
F89.735
aa(lp1301
F169.1358026666667
aF0.0
aF2.578834271523172
atp1302
sS'8242'
p1303
((lp1304
(lp1305
F90.0
aa(lp1306
F70.0
aa(lp1307
F90.0
aa(lp1308
F0.0
aF0.0
aI0
atp1309
sS'8243'
p1310
((lp1311
(lp1312
F90.0
aa(lp1313
F80.0
aa(lp1314
F90.0
aa(lp1315
F0.0
aF0.0
aI0
atp1316
sS'8240'
p1317
((lp1318
(lp1319
F88.636
aa(lp1320
F0.0
aa(lp1321
F38.0
aa(lp1322
F84.50413236363632
aF0.0
aF16.0
atp1323
sS'8241'
p1324
((lp1325
(lp1326
F90.0
aa(lp1327
F80.0
aa(lp1328
F90.0
aa(lp1329
F0.0
aF0.0
aI0
atp1330
sS'8246'
p1331
((lp1332
(lp1333
F90.0
aa(lp1334
F80.0
aa(lp1335
F90.0
aa(lp1336
F0.0
aF0.0
aI0
atp1337
sS'8247'
p1338
((lp1339
(lp1340
F54.5
aa(lp1341
F-0.0
aa(lp1342
F91.429
aa(lp1343
F209.75
aF0.0
aF13.387755285714269
atp1344
sS'8244'
p1345
((lp1346
(lp1347
F90.0
aa(lp1348
F80.0
aa(lp1349
F90.0
aa(lp1350
F0.0
aF0.0
aI0
atp1351
sS'8245'
p1352
((lp1353
(lp1354
F94.193
aa(lp1355
F3.333
aa(lp1356
F60.25
aa(lp1357
F42.08556478947369
aF22.222222333333335
aF137.4375
atp1358
sS'8765'
p1359
((lp1360
(lp1361
F80.0
aa(lp1362
F90.0
aa(lp1363
F80.0
aa(lp1364
F0.0
aF0.0
aI0
atp1365
sS'8764'
p1366
((lp1367
(lp1368
F80.0
aa(lp1369
F90.0
aa(lp1370
F90.0
aa(lp1371
F0.0
aF0.0
aI0
atp1372
sS'8767'
p1373
((lp1374
(lp1375
F87.295
aa(lp1376
F0.0
aa(lp1377
F43.333
aa(lp1378
F41.08357304270471
aF0.0
aF88.88888900000009
atp1379
sS'8766'
p1380
((lp1381
(lp1382
F43.571
aa(lp1383
F0.0
aa(lp1384
F80.333
aa(lp1385
F87.24489814285718
aF0.0
aF89.888889
atp1386
sS'8761'
p1387
((lp1388
(lp1389
F90.0
aa(lp1390
F90.0
aa(lp1391
F90.0
aa(lp1392
F0.0
aI0
aI0
atp1393
sS'8760'
p1394
((lp1395
(lp1396
F90.0
aa(lp1397
F80.0
aa(lp1398
F90.0
aa(lp1399
F0.0
aF0.0
aI0
atp1400
sS'8648'
p1401
((lp1402
(lp1403
F1.689
aa(lp1404
F90.0
aa(lp1405
F64.737
aa(lp1406
F47.810403119205134
aF0.0
aF77.56232689473661
atp1407
sS'8649'
p1408
((lp1409
(lp1410
F86.146
aa(lp1411
F49.375
aa(lp1412
F0.0
aa(lp1413
F57.4419989268293
aF12.109375
aF0.0
atp1414
sS'8646'
p1415
((lp1416
(lp1417
F59.31
aa(lp1418
F89.068
aa(lp1419
F13.437
aa(lp1420
F101.16610000000004
aF25.82591213559319
aF124.74609400000003
atp1421
sS'8647'
p1422
((lp1423
(lp1424
F79.879
aa(lp1425
F0.0
aa(lp1426
F43.811
aa(lp1427
F90.08203230434786
aF0.0
aF85.4771307421204
atp1428
sS'8644'
p1429
((lp1430
(lp1431
F87.143
aa(lp1432
F-0.0
aa(lp1433
F46.667
aa(lp1434
F48.97959185714285
aF0.0
aF55.555555666666656
atp1435
sS'8645'
p1436
((lp1437
(lp1438
F90.0
aa(lp1439
F80.0
aa(lp1440
F90.0
aa(lp1441
F0.0
aF0.0
aI0
atp1442
sS'8642'
p1443
((lp1444
(lp1445
F60.323
aa(lp1446
F15.375
aa(lp1447
F89.659
aa(lp1448
F99.89594190322583
aF224.859375
aF3.292871909090905
atp1449
sS'8643'
p1450
((lp1451
(lp1452
F80.0
aa(lp1453
F90.0
aa(lp1454
F90.0
aa(lp1455
F0.0
aF0.0
aI0
atp1456
sS'8640'
p1457
((lp1458
(lp1459
F80.0
aa(lp1460
F90.0
aa(lp1461
F80.0
aa(lp1462
F0.0
aF0.0
aI0
atp1463
sS'8641'
p1464
((lp1465
(lp1466
F90.0
aa(lp1467
F70.0
aa(lp1468
F50.0
aa(lp1469
F0.0
aF0.0
aF0.0
atp1470
sS'8426'
p1471
((lp1472
(lp1473
F90.0
aa(lp1474
F80.0
aa(lp1475
F61.0
aa(lp1476
F0.0
aF0.0
aF0.0
atp1477
sS'8427'
p1478
((lp1479
(lp1480
F90.0
aa(lp1481
F80.0
aa(lp1482
F90.0
aa(lp1483
F0.0
aF0.0
aI0
atp1484
sS'8424'
p1485
((lp1486
(lp1487
F89.854
aa(lp1488
F47.071
aa(lp1489
F70.0
aa(lp1490
F1.4385422773722698
aF65.15661675757573
aF0.0
atp1491
sS'8425'
p1492
((lp1493
(lp1494
F88.333
aa(lp1495
F0.0
aa(lp1496
F42.0
aa(lp1497
F30.55555566666662
aF0.0
aF96.0
atp1498
sS'8422'
p1499
((lp1500
(lp1501
F75.658
aa(lp1502
F24.803
aa(lp1503
F50.0
aa(lp1504
F80.9178138845272
aF128.89825781889718
aF0.0
atp1505
sS'8423'
p1506
((lp1507
(lp1508
F90.0
aa(lp1509
F90.0
aa(lp1510
F90.0
aa(lp1511
F0.0
aI0
aI0
atp1512
sS'8389'
p1513
((lp1514
(lp1515
F0.0
aa(lp1516
F86.842
aa(lp1517
F38.621
aa(lp1518
F0.0
aF51.08033242105257
aF98.0975030689656
atp1519
sS'8388'
p1520
((lp1521
(lp1522
F80.0
aa(lp1523
F90.0
aa(lp1524
F90.0
aa(lp1525
F0.0
aF0.0
aI0
atp1526
sS'8387'
p1527
((lp1528
(lp1529
F89.048
aa(lp1530
F36.667
aa(lp1531
F0.0
aa(lp1532
F8.616780190476188
aF88.88888899999999
aF0.0
atp1533
sS'8386'
p1534
((lp1535
(lp1536
F90.294
aa(lp1537
F100.0
aa(lp1538
F78.435
aa(lp1539
F1.38408305882353
aF0.0
aF41.72400760869563
atp1540
sS'8385'
p1541
((lp1542
(lp1543
F0.291
aa(lp1544
F95.03
aa(lp1545
F53.333
aa(lp1546
F2.6530356099290926
aF43.665748484848486
aF155.55555566666666
atp1547
sS'8384'
p1548
((lp1549
(lp1550
F86.552
aa(lp1551
F38.75
aa(lp1552
F0.0
aa(lp1553
F57.074910896551735
aF98.4375
aF0.0
atp1554
sS'8383'
p1555
((lp1556
(lp1557
F1.714
aa(lp1558
F98.302
aa(lp1559
F69.308
aa(lp1560
F48.489795999999984
aF11.437166264150942
aF114.9822486153846
atp1561
sS'8382'
p1562
((lp1563
(lp1564
F0.09
aa(lp1565
F82.517
aa(lp1566
F40.417
aa(lp1567
F0.8870259560618492
aF93.66228200699268
aF99.82638899999979
atp1568
sS'8381'
p1569
((lp1570
(lp1571
F89.661
aa(lp1572
F0.0
aa(lp1573
F50.0
aa(lp1574
F6.664751508474561
aF0.0
aF0.0
atp1575
sS'8380'
p1576
((lp1577
(lp1578
F89.726
aa(lp1579
F0.0
aa(lp1580
F35.625
aa(lp1581
F5.404391068493145
aF0.0
aF80.859375
atp1582
sS'8985'
p1583
((lp1584
(lp1585
F89.412
aa(lp1586
F0.0
aa(lp1587
F38.571
aa(lp1588
F5.536332235294111
aF0.0
aF97.95918385714288
atp1589
sS'8022'
p1590
((lp1591
(lp1592
F90.0
aa(lp1593
F80.0
aa(lp1594
F90.0
aa(lp1595
F0.0
aF0.0
aI0
atp1596
sS'8987'
p1597
((lp1598
(lp1599
F90.0
aa(lp1600
F80.0
aa(lp1601
F90.0
aa(lp1602
F0.0
aF0.0
aI0
atp1603
sS'8050'
p1604
((lp1605
(lp1606
F87.531
aa(lp1607
F37.368
aa(lp1608
F0.0
aa(lp1609
F35.87867704938273
aF93.07479242105263
aF0.0
atp1610
sS'8549'
p1611
((lp1612
(lp1613
F0.0
aa(lp1614
F80.0
aa(lp1615
F42.727
aa(lp1616
F0.0
aF92.3076923076923
aF92.56198354545455
atp1617
sS'8548'
p1618
((lp1619
(lp1620
F80.0
aa(lp1621
F0.0
aa(lp1622
F90.0
aa(lp1623
F0.0
aF0.0
aF0.0
atp1624
sS'8019'
p1625
((lp1626
(lp1627
F62.971
aa(lp1628
F1.256
aa(lp1629
F90.375
aa(lp1630
F78.25632671428572
aF31.129136000000006
aF57.43080357142857
atp1631
sS'8018'
p1632
((lp1633
(lp1634
F90.0
aa(lp1635
F90.0
aa(lp1636
F90.0
aa(lp1637
F0.0
aI0
aI0
atp1638
sS'8017'
p1639
((lp1640
(lp1641
F59.043
aa(lp1642
F3.7
aa(lp1643
F86.458
aa(lp1644
F66.09296968965512
aF91.01000000000005
aF20.844614909090907
atp1645
sS'8016'
p1646
((lp1647
(lp1648
F90.0
aa(lp1649
F80.0
aa(lp1650
F90.0
aa(lp1651
F0.0
aF0.0
aI0
atp1652
sS'8015'
p1653
((lp1654
(lp1655
F63.131
aa(lp1656
F89.375
aa(lp1657
F22.174
aa(lp1658
F90.19487817171719
aF5.859375
aF173.5349716521739
atp1659
sS'8014'
p1660
((lp1661
(lp1662
F90.0
aa(lp1663
F80.0
aa(lp1664
F80.0
aa(lp1665
F0.0
aI0
aF0.0
atp1666
sS'8989'
p1667
((lp1668
(lp1669
F88.318
aa(lp1670
F40.0
aa(lp1671
F0.0
aa(lp1672
F19.599965121495327
aF100.0
aF0.0
atp1673
sS'8012'
p1674
((lp1675
(lp1676
F80.0
aa(lp1677
F90.0
aa(lp1678
F90.0
aa(lp1679
F0.0
aF0.0
aI0
atp1680
sS'8011'
p1681
((lp1682
(lp1683
F90.455
aa(lp1684
F50.0
aa(lp1685
F77.0
aa(lp1686
F4.338843181818183
aF0.0
aF16.0
atp1687
sS'8010'
p1688
((lp1689
(lp1690
F30.0
aa(lp1691
F88.824
aa(lp1692
F50.0
aa(lp1693
F0.0
aF10.380623058823533
aF0.0
atp1694
sS'8171'
p1695
((lp1696
(lp1697
F41.22
aa(lp1698
F-0.0
aa(lp1699
F84.744
aa(lp1700
F98.51279024390243
aF0.0
aF71.08810010256401
atp1701
sS'8021'
p1702
((lp1703
(lp1704
F-0.0
aa(lp1705
F51.851
aa(lp1706
F30.0
aa(lp1707
F0.0
aF33.59921642776966
aF0.37453183520599254
atp1708
sS'8055'
p1709
((lp1710
(lp1711
F80.849
aa(lp1712
F0.0
aa(lp1713
F36.667
aa(lp1714
F98.33570666037741
aF0.0
aF88.88888899999975
atp1715
sS'8026'
p1716
((lp1717
(lp1718
F37.027
aa(lp1719
F86.099
aa(lp1720
F0.0
aa(lp1721
F91.16143170270274
aF62.08943220567374
aF0.0
atp1722
sS'8351'
p1723
((lp1724
(lp1725
F90.0
aa(lp1726
F90.0
aa(lp1727
F90.0
aa(lp1728
F0.0
aI0
aI0
atp1729
sS'8054'
p1730
((lp1731
(lp1732
F90.0
aa(lp1733
F90.0
aa(lp1734
F90.0
aa(lp1735
F0.0
aI0
aI0
atp1736
sS'8027'
p1737
((lp1738
(lp1739
F90.0
aa(lp1740
F80.0
aa(lp1741
F80.0
aa(lp1742
F0.0
aF0.0
aI0
atp1743
sS'8493'
p1744
((lp1745
(lp1746
F90.0
aa(lp1747
F0.0
aa(lp1748
F80.0
aa(lp1749
F0.0
aF0.0
aF0.0
atp1750
sS'8492'
p1751
((lp1752
(lp1753
F65.041
aa(lp1754
F3.452
aa(lp1755
F89.946
aa(lp1756
F74.58506942975156
aF89.27154209523817
aF0.7506016835306888
atp1757
sS'8491'
p1758
((lp1759
(lp1760
F90.0
aa(lp1761
F0.0
aa(lp1762
F80.0
aa(lp1763
F0.0
aF0.0
aF0.0
atp1764
sS'8490'
p1765
((lp1766
(lp1767
F87.188
aa(lp1768
F0.0
aa(lp1769
F50.0
aa(lp1770
F29.589843999999985
aF0.0
aF0.0
atp1771
sS'8497'
p1772
((lp1773
(lp1774
F89.365
aa(lp1775
F-0.0
aa(lp1776
F42.0
aa(lp1777
F12.295288492063499
aF0.0
aF96.0
atp1778
sS'8496'
p1779
((lp1780
(lp1781
F-0.0
aa(lp1782
F87.05
aa(lp1783
F38.824
aa(lp1784
F0.0
aF49.57300359712221
aF98.61591717647063
atp1785
sS'8495'
p1786
((lp1787
(lp1788
F-0.0
aa(lp1789
F85.238
aa(lp1790
F41.304
aa(lp1791
F0.0
aF63.038548761904764
aF98.2986768695652
atp1792
sS'8494'
p1793
((lp1794
(lp1795
F82.778
aa(lp1796
F-0.0
aa(lp1797
F40.526
aa(lp1798
F92.28395066666667
aF0.0
aF99.72299178947372
atp1799
sS'8499'
p1800
((lp1801
(lp1802
F42.747
aa(lp1803
F-0.0
aa(lp1804
F84.0
aa(lp1805
F92.45582233333315
aF0.0
aF82.23529411764706
atp1806
sS'8498'
p1807
((lp1808
(lp1809
F36.41
aa(lp1810
F0.0
aa(lp1811
F75.339
aa(lp1812
F87.11374102564106
aF0.0
aF57.0884803220339
atp1813
sS'8332'
p1814
((lp1815
(lp1816
F35.0
aa(lp1817
F70.0
aa(lp1818
F0.0
aa(lp1819
F75.0
aF0.0
aF0.0
atp1820
sS'8333'
p1821
((lp1822
(lp1823
F90.0
aa(lp1824
F80.0
aa(lp1825
F90.0
aa(lp1826
F0.0
aF0.0
aI0
atp1827
sS'8330'
p1828
((lp1829
(lp1830
F90.0
aa(lp1831
F80.0
aa(lp1832
F90.0
aa(lp1833
F0.0
aF0.0
aI0
atp1834
sS'8331'
p1835
((lp1836
(lp1837
F90.0
aa(lp1838
F80.0
aa(lp1839
F100.0
aa(lp1840
F0.0
aF0.0
aF0.0
atp1841
sS'8336'
p1842
((lp1843
(lp1844
F1.404
aa(lp1845
F94.782
aa(lp1846
F58.222
aa(lp1847
F30.180185696969662
aF52.679669454545405
aF164.32098770370374
atp1848
sS'8337'
p1849
((lp1850
(lp1851
F90.0
aa(lp1852
F80.0
aa(lp1853
F90.0
aa(lp1854
I0
aF0.0
aF0.0
atp1855
sS'8334'
p1856
((lp1857
(lp1858
F61.667
aa(lp1859
F88.491
aa(lp1860
F12.0
aa(lp1861
F97.22222233333336
aF12.815948924528294
aF216.0
atp1862
sS'8335'
p1863
((lp1864
(lp1865
F0.073
aa(lp1866
F99.528
aa(lp1867
F74.938
aa(lp1868
F0.6531826585365875
aF4.347798084507058
aF102.93359399999999
atp1869
sS'8338'
p1870
((lp1871
(lp1872
F43.31
aa(lp1873
F-0.0
aa(lp1874
F76.429
aa(lp1875
F89.04161724137911
aF0.0
aF85.45918385714336
atp1876
sS'8339'
p1877
((lp1878
(lp1879
F90.0
aa(lp1880
F80.0
aa(lp1881
F80.0
aa(lp1882
F0.0
aF0.0
aI0
atp1883
sS'8871'
p1884
((lp1885
(lp1886
F90.0
aa(lp1887
F80.0
aa(lp1888
F90.0
aa(lp1889
F0.0
aF0.0
aI0
atp1890
sS'8870'
p1891
((lp1892
(lp1893
F0.0
aa(lp1894
F86.364
aa(lp1895
F44.286
aa(lp1896
F0.0
aF59.504132363636366
aF81.63265314285715
atp1897
sS'8873'
p1898
((lp1899
(lp1900
F-0.0
aa(lp1901
F100.0
aa(lp1902
F0.0
aa(lp1903
I0
aF0.0
aF0.0
atp1904
sS'8872'
p1905
((lp1906
(lp1907
F87.0
aa(lp1908
F10.0
aa(lp1909
F50.0
aa(lp1910
F49.0
aF200.0
aF0.0
atp1911
sS'8875'
p1912
((lp1913
(lp1914
F90.0
aa(lp1915
F80.0
aa(lp1916
F80.0
aa(lp1917
F0.0
aF0.0
aI0
atp1918
sS'8874'
p1919
((lp1920
(lp1921
F100.0
aa(lp1922
F90.0
aa(lp1923
F80.0
aa(lp1924
F0.0
aF0.0
aF0.0
atp1925
sS'8877'
p1926
((lp1927
(lp1928
F89.792
aa(lp1929
F0.0
aa(lp1930
F60.0
aa(lp1931
F2.039930666666663
aF0.0
aF100.0
atp1932
sS'8876'
p1933
((lp1934
(lp1935
F84.591
aa(lp1936
F0.0
aa(lp1937
F99.8
aa(lp1938
F44.42355372727273
aF0.0
aF0.960000000000001
atp1939
sS'8879'
p1940
((lp1941
(lp1942
F89.375
aa(lp1943
F0.0
aa(lp1944
F63.333
aa(lp1945
F5.859375
aF0.0
aF88.88888899999999
atp1946
sS'8878'
p1947
((lp1948
(lp1949
F89.111
aa(lp1950
F0.0
aa(lp1951
F63.6
aa(lp1952
F12.320987666666674
aF0.0
aF75.84
atp1953
sS'8293'
p1954
((lp1955
(lp1956
F90.0
aa(lp1957
F-0.0
aa(lp1958
F50.0
aa(lp1959
F0.0
aF0.0
aF0.0
atp1960
sS'8978'
p1961
((lp1962
(lp1963
F90.0
aa(lp1964
F80.0
aa(lp1965
F90.0
aa(lp1966
F0.0
aF0.0
aI0
atp1967
sS'8979'
p1968
((lp1969
(lp1970
F80.0
aa(lp1971
F50.0
aa(lp1972
F80.0
aa(lp1973
F0.0
aF0.0
aI0
atp1974
sS'8292'
p1975
((lp1976
(lp1977
F37.302
aa(lp1978
F84.839
aa(lp1979
F-0.0
aa(lp1980
F92.71856907936514
aF76.5868887419355
aF0.0
atp1981
sS'8970'
p1982
((lp1983
(lp1984
F90.0
aa(lp1985
F90.0
aa(lp1986
F90.0
aa(lp1987
F0.0
aI0
aI0
atp1988
sS'8971'
p1989
((lp1990
(lp1991
F90.0
aa(lp1992
F80.0
aa(lp1993
F90.0
aa(lp1994
F0.0
aF0.0
aI0
atp1995
sS'8972'
p1996
((lp1997
(lp1998
F77.143
aa(lp1999
F0.0
aa(lp2000
F39.348
aa(lp2001
F87.07482995238094
aF0.0
aF99.57466921739135
atp2002
sS'8973'
p2003
((lp2004
(lp2005
F56.0
aa(lp2006
F95.063
aa(lp2007
F3.333
aa(lp2008
F184.0
aF36.93359400000001
aF22.222222333333335
atp2009
sS'8974'
p2010
((lp2011
(lp2012
F38.0
aa(lp2013
F75.714
aa(lp2014
F0.0
aa(lp2015
F96.0
aF81.63265314285717
aF0.0
atp2016
sS'8975'
p2017
((lp2018
(lp2019
F90.0
aa(lp2020
F90.0
aa(lp2021
F90.0
aa(lp2022
F0.0
aI0
aI0
atp2023
sS'8976'
p2024
((lp2025
(lp2026
F1.2
aa(lp2027
F90.0
aa(lp2028
F28.0
aa(lp2029
F10.560000000000025
aF76.92307692307692
aF16.0
atp2030
sS'8977'
p2031
((lp2032
(lp2033
F65.636
aa(lp2034
F1.776
aa(lp2035
F89.878
aa(lp2036
F68.23140509090908
aF50.134176000000025
aF1.2046400975609712
atp2037
sS'8299'
p2038
((lp2039
(lp2040
F-0.0
aa(lp2041
F76.59
aa(lp2042
F41.592
aa(lp2043
F0.0
aF87.60587777777774
aF97.46605583673485
atp2044
sS'8511'
p2045
((lp2046
(lp2047
F90.0
aa(lp2048
F80.0
aa(lp2049
F90.0
aa(lp2050
F0.0
aF0.0
aI0
atp2051
sS'8298'
p2052
((lp2053
(lp2054
F48.018
aa(lp2055
F90.0
aa(lp2056
F70.0
aa(lp2057
F35.711387063063036
aF0.0
aF0.0
atp2058
sS'8526'
p2059
((lp2060
(lp2061
F55.714
aa(lp2062
F90.0
aa(lp2063
F30.0
aa(lp2064
F81.63265314285715
aF0.0
aF0.0
atp2065
sS'8621'
p2066
((lp2067
(lp2068
F-0.0
aa(lp2069
F44.286
aa(lp2070
F80.0
aa(lp2071
F0.0
aF81.63265314285712
aF100.0
atp2072
sS'8804'
p2073
((lp2074
(lp2075
F86.364
aa(lp2076
F0.0
aa(lp2077
F30.0
aa(lp2078
F23.140496
aF0.0
aF0.0
atp2079
sS'8805'
p2080
((lp2081
(lp2082
F90.0
aa(lp2083
F80.0
aa(lp2084
F90.0
aa(lp2085
F0.0
aF0.0
aI0
atp2086
sS'8806'
p2087
((lp2088
(lp2089
F90.0
aa(lp2090
F10.0
aa(lp2091
F10.0
aa(lp2092
F0.0
aF0.0
aI0
atp2093
sS'8807'
p2094
((lp2095
(lp2096
F40.0
aa(lp2097
F80.667
aa(lp2098
F0.0
aa(lp2099
F100.0
aF99.55555566666666
aF0.0
atp2100
sS'8800'
p2101
((lp2102
(lp2103
F90.87
aa(lp2104
F0.968
aa(lp2105
F75.0
aa(lp2106
F7.939508695652181
aF28.095733677419307
aF25.0
atp2107
sS'8801'
p2108
((lp2109
(lp2110
F89.08
aa(lp2111
F0.0
aa(lp2112
F39.655
aa(lp2113
F16.395825287356267
aF0.0
aF99.88109396551722
atp2114
sS'8802'
p2115
((lp2116
(lp2117
F80.0
aa(lp2118
F90.0
aa(lp2119
F100.0
aa(lp2120
F0.0
aF0.0
aF0.0
atp2121
sS'8803'
p2122
((lp2123
(lp2124
F80.0
aa(lp2125
F90.0
aa(lp2126
F90.0
aa(lp2127
F0.0
aF0.0
aI0
atp2128
sS'8149'
p2129
((lp2130
(lp2131
F5.556
aa(lp2132
F90.0
aa(lp2133
F64.737
aa(lp2134
F135.80246933333322
aF0.0
aF77.56232689473683
atp2135
sS'8613'
p2136
((lp2137
(lp2138
F90.0
aa(lp2139
F80.0
aa(lp2140
F90.0
aa(lp2141
F0.0
aF0.0
aI0
atp2142
sS'8808'
p2143
((lp2144
(lp2145
F58.158
aa(lp2146
F-0.0
aa(lp2147
F30.0
aa(lp2148
F167.65927978947383
aF0.0
aF0.0
atp2149
sS'8809'
p2150
((lp2151
(lp2152
F90.0
aa(lp2153
F90.0
aa(lp2154
F90.0
aa(lp2155
F0.0
aI0
aI0
atp2156
sS'8525'
p2157
((lp2158
(lp2159
F90.0
aa(lp2160
F80.0
aa(lp2161
F90.0
aa(lp2162
F0.0
aF0.0
aI0
atp2163
sS'8758'
p2164
((lp2165
(lp2166
F1.111
aa(lp2167
F32.818
aa(lp2168
F100.0
aa(lp2169
F9.876543222222232
aF121.785124
aF0.0
atp2170
sS'8759'
p2171
((lp2172
(lp2173
F71.429
aa(lp2174
F43.333
aa(lp2175
F90.0
aa(lp2176
F12.244898142857144
aF88.88888899999999
aF0.0
atp2177
sS'8208'
p2178
((lp2179
(lp2180
F90.0
aa(lp2181
F80.0
aa(lp2182
F90.0
aa(lp2183
F0.0
aF0.0
aI0
atp2184
sS'8209'
p2185
((lp2186
(lp2187
F89.767
aa(lp2188
F50.0
aa(lp2189
F30.0
aa(lp2190
F2.2714983023255786
aF0.0
aF0.0
atp2191
sS'8754'
p2192
((lp2193
(lp2194
F0.0
aa(lp2195
F79.173
aa(lp2196
F41.741
aa(lp2197
F0.0
aF99.16717601195208
aF96.96982174074145
atp2198
sS'8207'
p2199
((lp2200
(lp2201
F79.11
aa(lp2202
F0.066
aa(lp2203
F45.187
aa(lp2204
F105.61416405693957
aF0.6535665263157898
aF84.65848899999982
atp2205
sS'8204'
p2206
((lp2207
(lp2208
F90.0
aa(lp2209
F80.0
aa(lp2210
F90.0
aa(lp2211
F0.0
aF0.0
aI0
atp2212
sS'8205'
p2213
((lp2214
(lp2215
F90.0
aa(lp2216
F80.0
aa(lp2217
F90.0
aa(lp2218
F0.0
aF0.0
aI0
atp2219
sS'8202'
p2220
((lp2221
(lp2222
F49.574
aa(lp2223
F88.75
aa(lp2224
F70.0
aa(lp2225
F8.32956110638296
aF10.9375
aF0.0
atp2226
sS'8203'
p2227
((lp2228
(lp2229
F90.0
aa(lp2230
F80.0
aa(lp2231
F90.0
aa(lp2232
F0.0
aF0.0
aI0
atp2233
sS'8752'
p2234
((lp2235
(lp2236
F90.0
aa(lp2237
F80.0
aa(lp2238
F90.0
aa(lp2239
F0.0
aF0.0
aI0
atp2240
sS'8201'
p2241
((lp2242
(lp2243
F90.0
aa(lp2244
F90.0
aa(lp2245
F90.0
aa(lp2246
F0.0
aI0
aI0
atp2247
sS'8148'
p2248
((lp2249
(lp2250
F72.5
aa(lp2251
F50.0
aa(lp2252
F90.0
aa(lp2253
F18.75
aF0.0
aF0.0
atp2254
sS'8675'
p2255
((lp2256
(lp2257
F90.0
aa(lp2258
F80.0
aa(lp2259
F90.0
aa(lp2260
F0.0
aF0.0
aI0
atp2261
sS'8524'
p2262
((lp2263
(lp2264
F89.189
aa(lp2265
F0.0
aa(lp2266
F30.0
aa(lp2267
F7.450693972972972
aF0.0
aF0.0
atp2268
sS'8729'
p2269
((lp2270
(lp2271
F80.0
aa(lp2272
F90.0
aa(lp2273
F90.0
aa(lp2274
F0.0
aF0.0
aI0
atp2275
sS'8728'
p2276
((lp2277
(lp2278
F0.084
aa(lp2279
F89.032
aa(lp2280
F63.853
aa(lp2281
F0.8239515866523099
aF59.74089496774193
aF62.7724913529412
atp2282
sS'8721'
p2283
((lp2284
(lp2285
F90.0
aa(lp2286
F80.0
aa(lp2287
F90.0
aa(lp2288
F0.0
aF0.0
aI0
atp2289
sS'8720'
p2290
((lp2291
(lp2292
F90.0
aa(lp2293
F70.0
aa(lp2294
F50.0
aa(lp2295
F0.0
aF0.0
aF0.0
atp2296
sS'8723'
p2297
((lp2298
(lp2299
F90.0
aa(lp2300
F50.0
aa(lp2301
F75.0
aa(lp2302
F0.0
aF0.0
aF25.0
atp2303
sS'8722'
p2304
((lp2305
(lp2306
F90.0
aa(lp2307
F63.0
aa(lp2308
F100.0
aa(lp2309
F0.0
aF0.0
aF0.0
atp2310
sS'8725'
p2311
((lp2312
(lp2313
F80.0
aa(lp2314
F90.0
aa(lp2315
F90.0
aa(lp2316
F0.0
aF0.0
aI0
atp2317
sS'8724'
p2318
((lp2319
(lp2320
F90.0
aa(lp2321
F80.0
aa(lp2322
F90.0
aa(lp2323
F0.0
aF0.0
aI0
atp2324
sS'8727'
p2325
((lp2326
(lp2327
F63.333
aa(lp2328
F10.0
aa(lp2329
F90.0
aa(lp2330
F88.88888899999999
aF200.0
aF0.0
atp2331
sS'8726'
p2332
((lp2333
(lp2334
F71.667
aa(lp2335
F90.0
aa(lp2336
F50.0
aa(lp2337
F13.888889
aF0.0
aF0.0
atp2338
sS'8501'
p2339
((lp2340
(lp2341
F40.526
aa(lp2342
F0.0
aa(lp2343
F80.038
aa(lp2344
F99.72299178947418
aF0.0
aF93.86826392337137
atp2345
sS'8500'
p2346
((lp2347
(lp2348
F90.0
aa(lp2349
F80.0
aa(lp2350
F70.0
aa(lp2351
F0.0
aF0.0
aF0.0
atp2352
sS'8503'
p2353
((lp2354
(lp2355
F40.909
aa(lp2356
F-0.0
aa(lp2357
F85.6
aa(lp2358
F99.17355372727273
aF0.0
aF48.64000000000001
atp2359
sS'8502'
p2360
((lp2361
(lp2362
F90.0
aa(lp2363
F80.0
aa(lp2364
F90.0
aa(lp2365
F0.0
aF0.0
aI0
atp2366
sS'8505'
p2367
((lp2368
(lp2369
F80.0
aa(lp2370
F90.0
aa(lp2371
F90.0
aa(lp2372
F0.0
aF0.0
aI0
atp2373
sS'8504'
p2374
((lp2375
(lp2376
F90.0
aa(lp2377
F80.0
aa(lp2378
F90.0
aa(lp2379
F0.0
aF0.0
aI0
atp2380
sS'8507'
p2381
((lp2382
(lp2383
F90.0
aa(lp2384
F80.0
aa(lp2385
F90.0
aa(lp2386
F0.0
aF0.0
aI0
atp2387
sS'8506'
p2388
((lp2389
(lp2390
F65.159
aa(lp2391
F89.923
aa(lp2392
F21.429
aa(lp2393
F73.38228736942688
aF0.7633136153846162
aF183.67346957142848
atp2394
sS'8509'
p2395
((lp2396
(lp2397
F80.0
aa(lp2398
F90.0
aa(lp2399
F80.0
aa(lp2400
F0.0
aF0.0
aI0
atp2401
sS'8508'
p2402
((lp2403
(lp2404
F1.848
aa(lp2405
F96.033
aa(lp2406
F51.511
aa(lp2407
F28.359994109889918
aF41.44550490909052
aF199.70590627607373
atp2408
sS'8059'
p2409
((lp2410
(lp2411
F90.0
aa(lp2412
F80.0
aa(lp2413
F90.0
aa(lp2414
F0.0
aF0.0
aI0
atp2415
sS'8058'
p2416
((lp2417
(lp2418
F90.0
aa(lp2419
F80.0
aa(lp2420
F90.0
aa(lp2421
F0.0
aF0.0
aI0
atp2422
sS'8608'
p2423
((lp2424
(lp2425
F50.0
aa(lp2426
F26.304
aa(lp2427
F74.0
aa(lp2428
F0.0
aF97.2117203478263
aF62.46153846153846
atp2429
sS'8291'
p2430
((lp2431
(lp2432
F90.0
aa(lp2433
F70.0
aa(lp2434
F80.0
aa(lp2435
F0.0
aF0.0
aF0.0
atp2436
sS'8290'
p2437
((lp2438
(lp2439
F90.0
aa(lp2440
F30.0
aa(lp2441
F80.0
aa(lp2442
F0.0
aF0.0
aF0.0
atp2443
sS'8118'
p2444
((lp2445
(lp2446
F90.0
aa(lp2447
F80.0
aa(lp2448
F80.0
aa(lp2449
F0.0
aF0.0
aI0
atp2450
sS'8119'
p2451
((lp2452
(lp2453
F0.027
aa(lp2454
F87.965
aa(lp2455
F41.518
aa(lp2456
F0.2679150308932006
aF72.28082212230164
aF100.1718726381324
atp2457
sS'8295'
p2458
((lp2459
(lp2460
F70.0
aa(lp2461
F90.0
aa(lp2462
F43.333
aa(lp2463
F0.0
aF0.0
aF88.88888899999999
atp2464
sS'8294'
p2465
((lp2466
(lp2467
F86.167
aa(lp2468
F60.03
aa(lp2469
F22.7
aa(lp2470
F38.73888899999999
aF58.45362727272727
aF173.01
atp2471
sS'8297'
p2472
((lp2473
(lp2474
F90.0
aa(lp2475
F80.0
aa(lp2476
F90.0
aa(lp2477
F0.0
aF0.0
aI0
atp2478
sS'8296'
p2479
((lp2480
(lp2481
F80.0
aa(lp2482
F90.0
aa(lp2483
F90.0
aa(lp2484
F0.0
aF0.0
aI0
atp2485
sS'8112'
p2486
((lp2487
(lp2488
F90.0
aa(lp2489
F80.0
aa(lp2490
F91.0
aa(lp2491
F0.0
aF0.0
aF0.0
atp2492
sS'8113'
p2493
((lp2494
(lp2495
F78.75
aa(lp2496
F0.0
aa(lp2497
F90.0
aa(lp2498
F10.9375
aF0.0
aF0.0
atp2499
sS'8110'
p2500
((lp2501
(lp2502
F80.0
aa(lp2503
F90.0
aa(lp2504
F90.0
aa(lp2505
F0.0
aF0.0
aI0
atp2506
sS'8111'
p2507
((lp2508
(lp2509
F72.342
aa(lp2510
F10.5
aa(lp2511
F95.767
aa(lp2512
F81.06717452631582
aF192.58333333333334
aF32.91222233333335
atp2513
sS'8116'
p2514
((lp2515
(lp2516
F90.0
aa(lp2517
F80.0
aa(lp2518
F90.0
aa(lp2519
F0.0
aF0.0
aI0
atp2520
sS'8117'
p2521
((lp2522
(lp2523
F90.0
aa(lp2524
F80.0
aa(lp2525
F90.0
aa(lp2526
F0.0
aF0.0
aI0
atp2527
sS'8114'
p2528
((lp2529
(lp2530
F80.0
aa(lp2531
F90.0
aa(lp2532
F90.0
aa(lp2533
F0.0
aF0.0
aI0
atp2534
sS'8115'
p2535
((lp2536
(lp2537
F89.856
aa(lp2538
F2.243
aa(lp2539
F65.37
aa(lp2540
F1.4148029856459312
aF62.25871255140201
aF71.15912222222212
atp2541
sS'8793'
p2542
((lp2543
(lp2544
F28.722
aa(lp2545
F88.17
aa(lp2546
F0.0
aa(lp2547
F59.31172844444445
aF123.80081489361706
aF0.0
atp2548
sS'8794'
p2549
((lp2550
(lp2551
F6.667
aa(lp2552
F90.0
aa(lp2553
F64.286
aa(lp2554
F155.55555566666663
aF0.0
aF81.63265314285717
atp2555
sS'8795'
p2556
((lp2557
(lp2558
F90.0
aa(lp2559
F80.0
aa(lp2560
F90.0
aa(lp2561
F0.0
aF0.0
aI0
atp2562
sS'8615'
p2563
((lp2564
(lp2565
F38.0
aa(lp2566
F90.0
aa(lp2567
F70.0
aa(lp2568
F96.0
aF0.0
aF0.0
atp2569
sS'8614'
p2570
((lp2571
(lp2572
F89.592
aa(lp2573
F-0.0
aa(lp2574
F41.111
aa(lp2575
F7.9966680816326585
aF0.0
aF98.76543211111112
atp2576
sS'8617'
p2577
((lp2578
(lp2579
F0.0
aa(lp2580
F79.749
aa(lp2581
F40.456
aa(lp2582
F0.0
aF96.1712855188282
aF99.79167043983416
atp2583
sS'8616'
p2584
((lp2585
(lp2586
F90.0
aa(lp2587
F0.0
aa(lp2588
F30.0
aa(lp2589
F0.0
aF0.0
aF0.0
atp2590
sS'8611'
p2591
((lp2592
(lp2593
F90.0
aa(lp2594
F80.0
aa(lp2595
F90.0
aa(lp2596
F0.0
aF0.0
aI0
atp2597
sS'8610'
p2598
((lp2599
(lp2600
F94.096
aa(lp2601
F18.824
aa(lp2602
F74.177
aa(lp2603
F24.183481060240933
aF210.3806230588235
aF74.56529674193551
atp2604
sS'8598'
p2605
((lp2606
(lp2607
F90.0
aa(lp2608
F0.0
aa(lp2609
F50.0
aa(lp2610
F0.0
aF0.0
aF0.0
atp2611
sS'8599'
p2612
((lp2613
(lp2614
F90.618
aa(lp2615
F7.667
aa(lp2616
F77.882
aa(lp2617
F6.272396727272726
aF117.55555566666668
aF14.45674752941177
atp2618
sS'8596'
p2619
((lp2620
(lp2621
F88.667
aa(lp2622
F0.0
aa(lp2623
F66.0
aa(lp2624
F11.555555666666667
aF0.0
aF64.0
atp2625
sS'8597'
p2626
((lp2627
(lp2628
F90.0
aa(lp2629
F72.5
aa(lp2630
F50.0
aa(lp2631
F0.0
aF18.75
aF0.0
atp2632
sS'8594'
p2633
((lp2634
(lp2635
F90.0
aa(lp2636
F40.0
aa(lp2637
F80.077
aa(lp2638
F0.0
aF0.0
aF0.07100592307692309
atp2639
sS'8595'
p2640
((lp2641
(lp2642
F-0.0
aa(lp2643
F86.667
aa(lp2644
F42.917
aa(lp2645
F0.0
aF53.4722223333334
aF91.49305566666663
atp2646
sS'8619'
p2647
((lp2648
(lp2649
F90.0
aa(lp2650
F80.0
aa(lp2651
F90.0
aa(lp2652
F0.0
aF0.0
aI0
atp2653
sS'8618'
p2654
((lp2655
(lp2656
F90.269
aa(lp2657
F42.391
aa(lp2658
F70.957
aa(lp2659
F2.6167643613445355
aF192.10775056521734
aF8.125848999999993
atp2660
sS'8590'
p2661
((lp2662
(lp2663
F80.0
aa(lp2664
F90.0
aa(lp2665
F80.0
aa(lp2666
F0.0
aF0.0
aI0
atp2667
sS'8591'
p2668
((lp2669
(lp2670
F60.0
aa(lp2671
F90.0
aa(lp2672
F80.0
aa(lp2673
F0.0
aF0.0
aF0.0
atp2674
sS'8376'
p2675
((lp2676
(lp2677
F90.0
aa(lp2678
F80.0
aa(lp2679
F80.0
aa(lp2680
F0.0
aF0.0
aI0
atp2681
sS'8377'
p2682
((lp2683
(lp2684
F30.0
aa(lp2685
F85.897
aa(lp2686
F0.0
aa(lp2687
F0.0
aF54.963839769230795
aF0.0
atp2688
sS'8374'
p2689
((lp2690
(lp2691
F85.797
aa(lp2692
F43.913
aa(lp2693
F-0.0
aa(lp2694
F64.94433943478268
aF84.68809073913043
aF0.0
atp2695
sS'8375'
p2696
((lp2697
(lp2698
F70.833
aa(lp2699
F43.636
aa(lp2700
F90.0
aa(lp2701
F7.638889
aF223.140496
aF0.0
atp2702
sS'8372'
p2703
((lp2704
(lp2705
F74.052
aa(lp2706
F0.0
aa(lp2707
F42.5
aa(lp2708
F60.703148444444295
aF0.0
aF93.75
atp2709
sS'8373'
p2710
((lp2711
(lp2712
F66.0
aa(lp2713
F2.0
aa(lp2714
F90.0
aa(lp2715
F64.0
aF56.0
aF0.0
atp2716
sS'8370'
p2717
((lp2718
(lp2719
F90.0
aa(lp2720
F90.0
aa(lp2721
F90.0
aa(lp2722
F0.0
aI0
aI0
atp2723
sS'8371'
p2724
((lp2725
(lp2726
F89.051
aa(lp2727
F0.0
aa(lp2728
F50.0
aa(lp2729
F9.858195936708894
aF0.0
aF0.0
atp2730
sS'8563'
p2731
((lp2732
(lp2733
F80.0
aa(lp2734
F26.667
aa(lp2735
F90.0
aa(lp2736
F0.0
aF422.2222223333333
aF0.0
atp2737
sS'8612'
p2738
((lp2739
(lp2740
F0.0
aa(lp2741
F79.255
aa(lp2742
F91.385
aa(lp2743
F0.0
aF21.915417156862755
aF10.339250641025638
atp2744
sS'8378'
p2745
((lp2746
(lp2747
F90.0
aa(lp2748
F90.0
aa(lp2749
F90.0
aa(lp2750
F0.0
aI0
aI0
atp2751
sS'8379'
p2752
((lp2753
(lp2754
F90.0
aa(lp2755
F80.0
aa(lp2756
F90.0
aa(lp2757
F0.0
aF0.0
aI0
atp2758
sS'8574'
p2759
((lp2760
(lp2761
F73.333
aa(lp2762
F44.286
aa(lp2763
F90.0
aa(lp2764
F22.222222333333335
aF81.63265314285715
aF0.0
atp2765
sS'8575'
p2766
((lp2767
(lp2768
F90.0
aa(lp2769
F11.667
aa(lp2770
F65.0
aa(lp2771
F0.0
aF30.55555566666666
aF75.0
atp2772
sS'8576'
p2773
((lp2774
(lp2775
F-0.0
aa(lp2776
F83.499
aa(lp2777
F40.156
aa(lp2778
F0.0
aF90.6907200721645
aF102.5797526666665
atp2779
sS'8577'
p2780
((lp2781
(lp2782
F55.885
aa(lp2783
F0.0
aa(lp2784
F89.075
aa(lp2785
F140.6661737179486
aF0.0
aF64.09437500000008
atp2786
sS'8479'
p2787
((lp2788
(lp2789
F90.0
aa(lp2790
F50.0
aa(lp2791
F78.0
aa(lp2792
F0.0
aF0.0
aF16.0
atp2793
sS'8478'
p2794
((lp2795
(lp2796
F-0.0
aa(lp2797
F90.0
aa(lp2798
F60.0
aa(lp2799
F0.0
aF0.0
aF100.0
atp2800
sS'8572'
p2801
((lp2802
(lp2803
F99.922
aa(lp2804
F80.0
aa(lp2805
F90.0
aa(lp2806
F0.20953498039215768
aF0.0
aF0.0
atp2807
sS'8573'
p2808
((lp2809
(lp2810
F0.003
aa(lp2811
F58.253
aa(lp2812
F29.865
aa(lp2813
F0.03403691964589973
aF186.53219081818204
aF1.3330898648648655
atp2814
sS'8475'
p2815
((lp2816
(lp2817
F89.596
aa(lp2818
F0.0
aa(lp2819
F47.209
aa(lp2820
F7.911538981366587
aF0.0
aF48.02596006976745
atp2821
sS'8474'
p2822
((lp2823
(lp2824
F89.592
aa(lp2825
F40.0
aa(lp2826
F70.0
aa(lp2827
F3.9150354285714286
aF295.6521739130435
aF0.0
atp2828
sS'8477'
p2829
((lp2830
(lp2831
F96.571
aa(lp2832
F0.317
aa(lp2833
F59.625
aa(lp2834
F40.81632671428571
aF6.248425507936493
aF75.484375
atp2835
sS'8476'
p2836
((lp2837
(lp2838
F80.0
aa(lp2839
F80.0
aa(lp2840
F80.0
aa(lp2841
F0.0
aI0
aI0
atp2842
sS'8471'
p2843
((lp2844
(lp2845
F90.0
aa(lp2846
F90.0
aa(lp2847
F90.0
aa(lp2848
F0.0
aI0
aI0
atp2849
sS'8470'
p2850
((lp2851
(lp2852
F10.0
aa(lp2853
F90.0
aa(lp2854
F10.0
aa(lp2855
F0.0
aF0.0
aI0
atp2856
sS'8473'
p2857
((lp2858
(lp2859
F-0.0
aa(lp2860
F87.083
aa(lp2861
F36.765
aa(lp2862
F0.0
aF43.576389000000056
aF89.53287205882357
atp2863
sS'8472'
p2864
((lp2865
(lp2866
F100.0
aa(lp2867
F30.0
aa(lp2868
F100.0
aa(lp2869
F0.0
aF0.0
aI0
atp2870
sS'8189'
p2871
((lp2872
(lp2873
F90.0
aa(lp2874
F30.0
aa(lp2875
F80.0
aa(lp2876
F0.0
aF0.0
aF0.0
atp2877
sS'8944'
p2878
((lp2879
(lp2880
F90.0
aa(lp2881
F80.0
aa(lp2882
F90.0
aa(lp2883
F0.0
aF0.0
aI0
atp2884
sS'8185'
p2885
((lp2886
(lp2887
F90.0
aa(lp2888
F0.909
aa(lp2889
F77.407
aa(lp2890
F0.0
aF26.446281000000056
aF41.42661196296296
atp2891
sS'8592'
p2892
((lp2893
(lp2894
F86.214
aa(lp2895
F50.0
aa(lp2896
F23.077
aa(lp2897
F60.42039794174754
aF0.0
aF159.76331361538462
atp2898
sS'8187'
p2899
((lp2900
(lp2901
F80.0
aa(lp2902
F90.0
aa(lp2903
F90.0
aa(lp2904
F0.0
aF0.0
aI0
atp2905
sS'8186'
p2906
((lp2907
(lp2908
F90.0
aa(lp2909
F80.0
aa(lp2910
F80.0
aa(lp2911
F0.0
aF0.0
aI0
atp2912
sS'8181'
p2913
((lp2914
(lp2915
F-0.0
aa(lp2916
F90.0
aa(lp2917
F0.0
aa(lp2918
F0.0
aF0.0
aI0
atp2919
sS'8180'
p2920
((lp2921
(lp2922
F90.0
aa(lp2923
F80.0
aa(lp2924
F90.0
aa(lp2925
F0.0
aF0.0
aI0
atp2926
sS'8183'
p2927
((lp2928
(lp2929
F90.0
aa(lp2930
F30.0
aa(lp2931
F80.0
aa(lp2932
F0.0
aF0.0
aF0.0
atp2933
sS'8593'
p2934
((lp2935
(lp2936
F80.0
aa(lp2937
F90.0
aa(lp2938
F80.0
aa(lp2939
F0.0
aF0.0
aI0
atp2940
sS'8329'
p2941
((lp2942
(lp2943
F90.0
aa(lp2944
F80.0
aa(lp2945
F90.0
aa(lp2946
F0.0
aF0.0
aI0
atp2947
sS'8328'
p2948
((lp2949
(lp2950
F90.0
aa(lp2951
F80.0
aa(lp2952
F90.0
aa(lp2953
F0.0
aF0.0
aI0
atp2954
sS'8947'
p2955
((lp2956
(lp2957
F6.0
aa(lp2958
F88.75
aa(lp2959
F61.0
aa(lp2960
F72.0
aF10.9375
aF36.0
atp2961
sS'8756'
p2962
((lp2963
(lp2964
F36.804
aa(lp2965
F79.153
aa(lp2966
F0.0
aa(lp2967
F89.7863747628869
aF99.28181577966097
aF0.0
atp2968
sS'8223'
p2969
((lp2970
(lp2971
F90.0
aa(lp2972
F80.0
aa(lp2973
F90.0
aa(lp2974
F0.0
aF0.0
aI0
atp2975
sS'8326'
p2976
((lp2977
(lp2978
F90.0
aa(lp2979
F90.0
aa(lp2980
F90.0
aa(lp2981
F0.0
aI0
aI0
atp2982
sS'8757'
p2983
((lp2984
(lp2985
F0.0
aa(lp2986
F84.222
aa(lp2987
F41.692
aa(lp2988
F0.0
aF82.17283955555553
aF97.13609476923062
atp2989
sS'8321'
p2990
((lp2991
(lp2992
F80.0
aa(lp2993
F90.0
aa(lp2994
F80.0
aa(lp2995
F0.0
aF0.0
aI0
atp2996
sS'8859'
p2997
((lp2998
(lp2999
F39.26
aa(lp3000
F80.721
aa(lp3001
F-0.0
aa(lp3002
F99.45280547945217
aF99.24770146511621
aF0.0
atp3003
sS'8320'
p3004
((lp3005
(lp3006
F90.0
aa(lp3007
F90.0
aa(lp3008
F90.0
aa(lp3009
F0.0
aI0
aI0
atp3010
sS'8848'
p3011
((lp3012
(lp3013
F7.5
aa(lp3014
F90.453
aa(lp3015
F65.217
aa(lp3016
F168.75
aF4.283657430493261
aF72.77882813043459
atp3017
sS'8849'
p3018
((lp3019
(lp3020
F90.0
aa(lp3021
F80.0
aa(lp3022
F90.0
aa(lp3023
F0.0
aF0.0
aI0
atp3024
sS'8925'
p3025
((lp3026
(lp3027
F90.0
aa(lp3028
F50.0
aa(lp3029
F70.0
aa(lp3030
F0.0
aF0.0
aF0.0
atp3031
sS'8924'
p3032
((lp3033
(lp3034
F90.0
aa(lp3035
F80.0
aa(lp3036
F90.0
aa(lp3037
F0.0
aF0.0
aI0
atp3038
sS'8923'
p3039
((lp3040
(lp3041
F90.0
aa(lp3042
F80.0
aa(lp3043
F90.0
aa(lp3044
F0.0
aF0.0
aI0
atp3045
sS'8922'
p3046
((lp3047
(lp3048
F1.273
aa(lp3049
F89.866
aa(lp3050
F62.955
aa(lp3051
F36.3435587397768
aF2.660634571428573
aF91.73035213754623
atp3052
sS'8921'
p3053
((lp3054
(lp3055
F90.0
aa(lp3056
F80.0
aa(lp3057
F90.0
aa(lp3058
F0.0
aF0.0
aI0
atp3059
sS'8920'
p3060
((lp3061
(lp3062
F51.168
aa(lp3063
F92.696
aa(lp3064
F74.786
aa(lp3065
F83.96590064670711
aF19.562237989528715
aF24.95408171428576
atp3066
sS'8840'
p3067
((lp3068
(lp3069
F0.0
aa(lp3070
F80.31
aa(lp3071
F40.354
aa(lp3072
F0.0
aF98.17954827586232
aF99.8746965309732
atp3073
sS'8841'
p3074
((lp3075
(lp3076
F-0.0
aa(lp3077
F81.224
aa(lp3078
F43.766
aa(lp3079
F0.0
aF98.50273296202563
aF85.8154832727274
atp3080
sS'8842'
p3081
((lp3082
(lp3083
F89.643
aa(lp3084
F19.75
aa(lp3085
F62.222
aa(lp3086
F32.01530614285714
aF163.74305555555554
aF85.46172844444447
atp3087
sS'8843'
p3088
((lp3089
(lp3090
F70.625
aa(lp3091
F90.0
aa(lp3092
F42.5
aa(lp3093
F5.859375
aF0.0
aF218.75
atp3094
sS'8844'
p3095
((lp3096
(lp3097
F0.0
aa(lp3098
F88.239
aa(lp3099
F39.0
aa(lp3100
F0.0
aF32.11898263522014
aF99.0
atp3101
sS'8845'
p3102
((lp3103
(lp3104
F72.963
aa(lp3105
F13.0
aa(lp3106
F90.192
aa(lp3107
F20.850480111111118
aF201.0
aF1.8860947692307692
atp3108
sS'8846'
p3109
((lp3110
(lp3111
F89.492
aa(lp3112
F6.667
aa(lp3113
F67.619
aa(lp3114
F4.826199593220334
aF155.55555566666658
aF41.95011338095239
atp3115
sS'8847'
p3116
((lp3117
(lp3118
F0.0
aa(lp3119
F93.208
aa(lp3120
F50.0
aa(lp3121
F0.0
aF25.56069796226414
aF0.0
atp3122
sS'8750'
p3123
((lp3124
(lp3125
F19.853
aa(lp3126
F80.083
aa(lp3127
F50.0
aa(lp3128
F201.4489619411765
aF98.32638900000019
aF0.0
atp3129
sS'8763'
p3130
((lp3131
(lp3132
F92.281
aa(lp3133
F16.364
aa(lp3134
F58.5
aa(lp3135
F21.114189070175456
aF223.140496
aF100.25
atp3136
sS'8140'
p3137
((lp3138
(lp3139
F90.0
aa(lp3140
F70.0
aa(lp3141
F90.0
aa(lp3142
F0.0
aF0.0
aI0
atp3143
sS'8762'
p3144
((lp3145
(lp3146
F90.0
aa(lp3147
F80.0
aa(lp3148
F90.0
aa(lp3149
F0.0
aF0.0
aI0
atp3150
sS'8818'
p3151
((lp3152
(lp3153
F0.0
aa(lp3154
F81.111
aa(lp3155
F47.143
aa(lp3156
F0.0
aF98.7654321111111
aF48.97959185714286
atp3157
sS'8851'
p3158
((lp3159
(lp3160
F80.556
aa(lp3161
F34.286
aa(lp3162
F-0.0
aa(lp3163
F71.91358044444445
aF67.34693885714286
aF0.0
atp3164
sS'8751'
p3165
((lp3166
(lp3167
F90.0
aa(lp3168
F90.0
aa(lp3169
F90.0
aa(lp3170
F0.0
aI0
aI0
atp3171
sS'8850'
p3172
((lp3173
(lp3174
F90.0
aa(lp3175
F90.0
aa(lp3176
F90.0
aa(lp3177
F0.0
aI0
aI0
atp3178
sS'8769'
p3179
((lp3180
(lp3181
F90.0
aa(lp3182
F90.0
aa(lp3183
F90.0
aa(lp3184
F0.0
aI0
aI0
atp3185
sS'8226'
p3186
((lp3187
(lp3188
F89.892
aa(lp3189
F-0.0
aa(lp3190
F30.0
aa(lp3191
F1.0693937297297273
aF0.0
aF0.0
atp3192
sS'8768'
p3193
((lp3194
(lp3195
F35.0
aa(lp3196
F-0.0
aa(lp3197
F85.565
aa(lp3198
F75.0
aF0.0
aF57.72400760869555
atp3199
sS'8885'
p3200
((lp3201
(lp3202
F90.0
aa(lp3203
F90.0
aa(lp3204
F90.0
aa(lp3205
F0.0
aI0
aI0
atp3206
sS'8570'
p3207
((lp3208
(lp3209
F80.0
aa(lp3210
F90.0
aa(lp3211
F90.0
aa(lp3212
F0.0
aF0.0
aI0
atp3213
sS'8128'
p3214
((lp3215
(lp3216
F80.0
aa(lp3217
F90.0
aa(lp3218
F90.0
aa(lp3219
F0.0
aF0.0
aI0
atp3220
sS'8571'
p3221
((lp3222
(lp3223
F90.0
aa(lp3224
F80.0
aa(lp3225
F90.0
aa(lp3226
F0.0
aF0.0
aI0
atp3227
sS'8255'
p3228
((lp3229
(lp3230
F39.333
aa(lp3231
F76.087
aa(lp3232
F0.0
aa(lp3233
F99.55555566666666
aF84.68809073913042
aF0.0
atp3234
sS'8254'
p3235
((lp3236
(lp3237
F90.0
aa(lp3238
F30.952
aa(lp3239
F-0.0
aa(lp3240
F0.0
aF18.140589714285696
aF0.0
atp3241
sS'8257'
p3242
((lp3243
(lp3244
F-0.0
aa(lp3245
F85.362
aa(lp3246
F40.0
aa(lp3247
F0.0
aF71.24553675362309
aF100.0
atp3248
sS'8256'
p3249
((lp3250
(lp3251
F88.974
aa(lp3252
F0.0
aa(lp3253
F60.0
aa(lp3254
F9.204470871794884
aF0.0
aF100.0
atp3255
sS'8628'
p3256
((lp3257
(lp3258
F-0.0
aa(lp3259
F76.17
aa(lp3260
F45.349
aa(lp3261
F0.0
aF85.33272978723417
aF71.3899405348838
atp3262
sS'8629'
p3263
((lp3264
(lp3265
F0.017
aa(lp3266
F83.167
aa(lp3267
F45.716
aa(lp3268
F0.1736107391304323
aF79.24395594560663
aF107.06659284210494
atp3269
sS'8158'
p3270
((lp3271
(lp3272
F90.0
aa(lp3273
F80.0
aa(lp3274
F80.0
aa(lp3275
F0.0
aF0.0
aI0
atp3276
sS'8252'
p3277
((lp3278
(lp3279
F80.0
aa(lp3280
F90.0
aa(lp3281
F90.0
aa(lp3282
F0.0
aF0.0
aI0
atp3283
sS'8624'
p3284
((lp3285
(lp3286
F100.0
aa(lp3287
F0.306
aa(lp3288
F83.333
aa(lp3289
F0.0
aF6.628858222222224
aF0.22222233333333333
atp3290
sS'8625'
p3291
((lp3292
(lp3293
F41.855
aa(lp3294
F-0.0
aa(lp3295
F74.647
aa(lp3296
F96.55821957013582
aF0.0
aF70.75778547058815
atp3297
sS'8626'
p3298
((lp3299
(lp3300
F90.0
aa(lp3301
F80.0
aa(lp3302
F90.0
aa(lp3303
F0.0
aF0.0
aI0
atp3304
sS'8627'
p3305
((lp3306
(lp3307
F80.0
aa(lp3308
F0.0
aa(lp3309
F90.0
aa(lp3310
F0.0
aF0.0
aF0.0
atp3311
sS'8259'
p3312
((lp3313
(lp3314
F78.333
aa(lp3315
F0.0
aa(lp3316
F42.0
aa(lp3317
F27.222222333333338
aF0.0
aF96.0
atp3318
sS'8258'
p3319
((lp3320
(lp3321
F89.89
aa(lp3322
F-0.0
aa(lp3323
F30.0
aa(lp3324
F1.0868252747252778
aF0.0
aF0.0
atp3325
sS'8622'
p3326
((lp3327
(lp3328
F89.467
aa(lp3329
F18.182
aa(lp3330
F66.279
aa(lp3331
F5.045154830720994
aF214.87603309090917
aF60.57328286046507
atp3332
sS'8623'
p3333
((lp3334
(lp3335
F80.0
aa(lp3336
F90.0
aa(lp3337
F80.0
aa(lp3338
F0.0
aF0.0
aI0
atp3339
sS'8789'
p3340
((lp3341
(lp3342
F1.117
aa(lp3343
F39.506
aa(lp3344
F75.449
aa(lp3345
F17.591244555556017
aF101.64479101069774
aF91.91878694748037
atp3346
sS'8788'
p3347
((lp3348
(lp3349
F77.966
aa(lp3350
F-0.0
aa(lp3351
F37.5
aa(lp3352
F83.9988509152542
aF0.0
aF93.75
atp3353
sS'8783'
p3354
((lp3355
(lp3356
F83.077
aa(lp3357
F-0.0
aa(lp3358
F40.303
aa(lp3359
F78.44463229670343
aF0.0
aF99.90817263636363
atp3360
sS'8782'
p3361
((lp3362
(lp3363
F90.0
aa(lp3364
F80.0
aa(lp3365
F90.0
aa(lp3366
F0.0
aF0.0
aI0
atp3367
sS'8781'
p3368
((lp3369
(lp3370
F74.498
aa(lp3371
F-0.0
aa(lp3372
F40.691
aa(lp3373
F69.72367864114817
aF0.0
aF99.52306111049815
atp3374
sS'8780'
p3375
((lp3376
(lp3377
F90.152
aa(lp3378
F0.0
aa(lp3379
F63.333
aa(lp3380
F1.4921949090909103
aF0.0
aF88.88888899999999
atp3381
sS'8787'
p3382
((lp3383
(lp3384
F90.0
aa(lp3385
F30.0
aa(lp3386
F90.0
aa(lp3387
F0.0
aF0.0
aI0
atp3388
sS'8786'
p3389
((lp3390
(lp3391
F58.0
aa(lp3392
F88.293
aa(lp3393
F24.0
aa(lp3394
F96.0
aF14.158239243902441
aF144.0
atp3395
sS'8785'
p3396
((lp3397
(lp3398
F90.0
aa(lp3399
F80.0
aa(lp3400
F90.0
aa(lp3401
F0.0
aF0.0
aI0
atp3402
sS'8784'
p3403
((lp3404
(lp3405
F0.0
aa(lp3406
F80.488
aa(lp3407
F44.167
aa(lp3408
F0.0
aF87.56692448780485
aF82.63888900000006
atp3409
sS'8145'
p3410
((lp3411
(lp3412
F90.0
aa(lp3413
F80.0
aa(lp3414
F80.0
aa(lp3415
F0.0
aF0.0
aI0
atp3416
sS'8420'
p3417
((lp3418
(lp3419
F50.0
aa(lp3420
F90.0
aa(lp3421
F80.0
aa(lp3422
F0.0
aF0.0
aF0.0
atp3423
sS'8578'
p3424
((lp3425
(lp3426
F90.0
aa(lp3427
F80.0
aa(lp3428
F90.0
aa(lp3429
F0.0
aF0.0
aI0
atp3430
sS'8421'
p3431
((lp3432
(lp3433
F40.833
aa(lp3434
F0.0
aa(lp3435
F84.773
aa(lp3436
F99.30555566666665
aF0.0
aF70.40289263636356
atp3437
sS'8579'
p3438
((lp3439
(lp3440
F88.333
aa(lp3441
F0.0
aa(lp3442
F62.0
aa(lp3443
F13.888889
aF0.0
aF96.0
atp3444
sS'8659'
p3445
((lp3446
(lp3447
F0.0
aa(lp3448
F85.802
aa(lp3449
F66.087
aa(lp3450
F0.0
aF41.63999412345679
aF32.51417769565217
atp3451
sS'8658'
p3452
((lp3453
(lp3454
F89.902
aa(lp3455
F0.0
aa(lp3456
F45.0
aa(lp3457
F1.9511726274510215
aF0.0
aF75.0
atp3458
sS'8712'
p3459
((lp3460
(lp3461
F90.0
aa(lp3462
F80.0
aa(lp3463
F90.0
aa(lp3464
F0.0
aF0.0
aI0
atp3465
sS'8713'
p3466
((lp3467
(lp3468
F90.0
aa(lp3469
F50.0
aa(lp3470
F71.25
aa(lp3471
F0.0
aF0.0
aF4.6875
atp3472
sS'8714'
p3473
((lp3474
(lp3475
F90.0
aa(lp3476
F80.0
aa(lp3477
F70.0
aa(lp3478
F0.0
aF0.0
aF0.0
atp3479
sS'8715'
p3480
((lp3481
(lp3482
F89.38
aa(lp3483
F0.0
aa(lp3484
F42.0
aa(lp3485
F10.468120930232564
aF0.0
aF96.0
atp3486
sS'8716'
p3487
((lp3488
(lp3489
F88.928
aa(lp3490
F2.376
aa(lp3491
F63.934
aa(lp3492
F34.938815999999996
aF55.73963342574255
aF86.21543292307678
atp3493
sS'8717'
p3494
((lp3495
(lp3496
F40.833
aa(lp3497
F-0.0
aa(lp3498
F77.0
aa(lp3499
F99.30555566666668
aF0.0
aF58.142857142857146
atp3500
sS'8718'
p3501
((lp3502
(lp3503
F57.273
aa(lp3504
F26.231
aa(lp3505
F89.996
aa(lp3506
F92.56198354545438
aF98.85692816417941
aF0.037936303605313686
atp3507
sS'8719'
p3508
((lp3509
(lp3510
F80.0
aa(lp3511
F90.0
aa(lp3512
F90.0
aa(lp3513
F0.0
aF0.0
aI0
atp3514
sS'8653'
p3515
((lp3516
(lp3517
F90.0
aa(lp3518
F46.667
aa(lp3519
F70.0
aa(lp3520
F0.0
aF55.555555666666656
aF0.0
atp3521
sS'8652'
p3522
((lp3523
(lp3524
F90.0
aa(lp3525
F80.0
aa(lp3526
F80.0
aa(lp3527
F0.0
aF0.0
aI0
atp3528
sS'8655'
p3529
((lp3530
(lp3531
F45.789
aa(lp3532
F0.0
aa(lp3533
F83.75
aa(lp3534
F66.48199468421053
aF0.0
aF48.4375
atp3535
sS'8654'
p3536
((lp3537
(lp3538
F90.0
aa(lp3539
F90.0
aa(lp3540
F90.0
aa(lp3541
F0.0
aI0
aI0
atp3542
sS'8657'
p3543
((lp3544
(lp3545
F41.429
aa(lp3546
F0.0
aa(lp3547
F74.255
aa(lp3548
F97.95918385714309
aF0.0
aF66.99864202127654
atp3549
sS'8656'
p3550
((lp3551
(lp3552
F30.0
aa(lp3553
F-0.0
aa(lp3554
F58.317
aa(lp3555
F0.0
aF0.0
aF182.31545929702983
atp3556
sS'8431'
p3557
((lp3558
(lp3559
F100.0
aa(lp3560
F90.0
aa(lp3561
F100.0
aa(lp3562
F0.0
aF0.0
aI0
atp3563
sS'8430'
p3564
((lp3565
(lp3566
F40.0
aa(lp3567
F0.0
aa(lp3568
F75.714
aa(lp3569
F100.0
aF0.0
aF81.63265314285715
atp3570
sS'8433'
p3571
((lp3572
(lp3573
F80.0
aa(lp3574
F90.0
aa(lp3575
F80.0
aa(lp3576
F0.0
aF0.0
aI0
atp3577
sS'8432'
p3578
((lp3579
(lp3580
F7.0
aa(lp3581
F92.388
aa(lp3582
F63.75
aa(lp3583
F141.0
aF42.05836489552242
aF110.9375
atp3584
sS'8435'
p3585
((lp3586
(lp3587
F0.0
aa(lp3588
F39.565
aa(lp3589
F73.077
aa(lp3590
F0.0
aF99.81096413043478
aF52.07100592307692
atp3591
sS'8434'
p3592
((lp3593
(lp3594
F90.0
aa(lp3595
F90.0
aa(lp3596
F90.0
aa(lp3597
F0.0
aI0
aI0
atp3598
sS'8437'
p3599
((lp3600
(lp3601
F90.0
aa(lp3602
F11.25
aa(lp3603
F61.176
aa(lp3604
F0.0
aF210.9375
aF98.61591717647066
atp3605
sS'8436'
p3606
((lp3607
(lp3608
F4.815
aa(lp3609
F90.185
aa(lp3610
F48.182
aa(lp3611
F54.595336111111095
aF93.48422500000005
aF142.14876036363637
atp3612
sS'8439'
p3613
((lp3614
(lp3615
F90.0
aa(lp3616
F80.0
aa(lp3617
F90.0
aa(lp3618
F0.0
aF0.0
aI0
atp3619
sS'8438'
p3620
((lp3621
(lp3622
F82.83
aa(lp3623
F0.0
aa(lp3624
F35.946
aa(lp3625
F73.12210754716978
aF0.0
aF83.56464572972969
atp3626
sS'8538'
p3627
((lp3628
(lp3629
F90.6
aa(lp3630
F82.333
aa(lp3631
F69.0
aa(lp3632
F6.340000000000004
aF4.888889000000001
aF0.0
atp3633
sS'8539'
p3634
((lp3635
(lp3636
F89.976
aa(lp3637
F7.174
aa(lp3638
F65.0
aa(lp3639
F0.23980676923076508
aF163.7523629565218
aF75.0
atp3640
sS'8028'
p3641
((lp3642
(lp3643
F90.0
aa(lp3644
F80.0
aa(lp3645
F90.0
aa(lp3646
F0.0
aF0.0
aI0
atp3647
sS'8029'
p3648
((lp3649
(lp3650
F80.0
aa(lp3651
F90.0
aa(lp3652
F90.0
aa(lp3653
F0.0
aF0.0
aI0
atp3654
sS'8428'
p3655
((lp3656
(lp3657
F86.667
aa(lp3658
F35.161
aa(lp3659
F0.0
aa(lp3660
F55.55555566666666
aF76.58688874193551
aF0.0
atp3661
sS'8530'
p3662
((lp3663
(lp3664
F90.0
aa(lp3665
F90.0
aa(lp3666
F90.0
aa(lp3667
F0.0
aI0
aI0
atp3668
sS'8531'
p3669
((lp3670
(lp3671
F80.422
aa(lp3672
F41.575
aa(lp3673
F-0.0
aa(lp3674
F105.84627677108477
aF97.51999507873907
aF0.0
atp3675
sS'8020'
p3676
((lp3677
(lp3678
F92.917
aa(lp3679
F68.571
aa(lp3680
F80.0
aa(lp3681
F20.659722333333335
aF12.244898142857144
aF0.0
atp3682
sS'8533'
p3683
((lp3684
(lp3685
F80.0
aa(lp3686
F90.0
aa(lp3687
F80.0
aa(lp3688
F0.0
aF0.0
aI0
atp3689
sS'8534'
p3690
((lp3691
(lp3692
F79.545
aa(lp3693
F0.0
aa(lp3694
F44.667
aa(lp3695
F86.157025
aF0.0
aF78.22222233333332
atp3696
sS'8535'
p3697
((lp3698
(lp3699
F90.0
aa(lp3700
F10.0
aa(lp3701
F67.417
aa(lp3702
F0.0
aF200.0
aF44.988494166051446
atp3703
sS'8024'
p3704
((lp3705
(lp3706
F90.0
aa(lp3707
F70.0
aa(lp3708
F90.0
aa(lp3709
F0.0
aF0.0
aI0
atp3710
sS'8188'
p3711
((lp3712
(lp3713
F41.429
aa(lp3714
F82.973
aa(lp3715
F-0.0
aa(lp3716
F97.95918385714276
aF80.35062089189191
aF0.0
atp3717
sS'8865'
p3718
((lp3719
(lp3720
F52.941
aa(lp3721
F-0.0
aa(lp3722
F30.0
aa(lp3723
F50.17301041176467
aF0.0
aF0.0
atp3724
sS'8984'
p3725
((lp3726
(lp3727
F-0.0
aa(lp3728
F86.253
aa(lp3729
F36.643
aa(lp3730
F0.0
aF60.95643324242428
aF102.22959185714286
atp3731
sS'8986'
p3732
((lp3733
(lp3734
F-0.0
aa(lp3735
F83.38
aa(lp3736
F38.992
aa(lp3737
F0.0
aF85.75679436619718
aF98.98443609302302
atp3738
sS'8184'
p3739
((lp3740
(lp3741
F90.0
aa(lp3742
F4.286
aa(lp3743
F78.125
aa(lp3744
F0.0
aF110.20408171428569
aF15.234375
atp3745
sS'8981'
p3746
((lp3747
(lp3748
F0.001
aa(lp3749
F87.677
aa(lp3750
F45.667
aa(lp3751
F0.0012595119798234633
aF69.21859482278478
aF67.88888899999995
atp3752
sS'8146'
p3753
((lp3754
(lp3755
F90.0
aa(lp3756
F0.0
aa(lp3757
F80.0
aa(lp3758
F0.0
aF0.0
aF0.0
atp3759
sS'8862'
p3760
((lp3761
(lp3762
F90.0
aa(lp3763
F69.5
aa(lp3764
F80.0
aa(lp3765
F0.0
aF4.583333333333333
aF0.3333333333333333
atp3766
sS'8516'
p3767
((lp3768
(lp3769
F77.5
aa(lp3770
F0.0
aa(lp3771
F48.0
aa(lp3772
F85.41666666666667
aF0.0
aF36.0
atp3773
sS'8983'
p3774
((lp3775
(lp3776
F77.143
aa(lp3777
F0.0
aa(lp3778
F100.0
aa(lp3779
F48.97959185714285
aF0.0
aF0.0
atp3780
sS'8517'
p3781
((lp3782
(lp3783
F90.0
aa(lp3784
F80.0
aa(lp3785
F90.0
aa(lp3786
F0.0
aF0.0
aI0
atp3787
sS'8982'
p3788
((lp3789
(lp3790
F80.0
aa(lp3791
F90.0
aa(lp3792
F80.0
aa(lp3793
F0.0
aF0.0
aI0
atp3794
sS'8419'
p3795
((lp3796
(lp3797
F0.0
aa(lp3798
F86.923
aa(lp3799
F42.0
aa(lp3800
F0.0
aF52.07100592307693
aF96.0
atp3801
sS'8514'
p3802
((lp3803
(lp3804
F90.0
aa(lp3805
F90.0
aa(lp3806
F90.0
aa(lp3807
F0.0
aI0
aI0
atp3808
sS'8444'
p3809
((lp3810
(lp3811
F79.236
aa(lp3812
F0.0
aa(lp3813
F39.933
aa(lp3814
F98.7788552356691
aF0.0
aF99.99555566666619
atp3815
sS'8445'
p3816
((lp3817
(lp3818
F87.647
aa(lp3819
F50.0
aa(lp3820
F0.0
aa(lp3821
F17.993079588235297
aF0.0
aF0.0
atp3822
sS'8446'
p3823
((lp3824
(lp3825
F100.0
aa(lp3826
F100.0
aa(lp3827
F100.0
aa(lp3828
F0.0
aI0
aI0
atp3829
sS'8447'
p3830
((lp3831
(lp3832
F100.0
aa(lp3833
F60.0
aa(lp3834
F88.0
aa(lp3835
F0.0
aF0.0
aF20.333333333333332
atp3836
sS'8440'
p3837
((lp3838
(lp3839
F90.0
aa(lp3840
F80.0
aa(lp3841
F90.0
aa(lp3842
F0.0
aF0.0
aI0
atp3843
sS'8441'
p3844
((lp3845
(lp3846
F90.0
aa(lp3847
F80.0
aa(lp3848
F90.0
aa(lp3849
F0.0
aF0.0
aI0
atp3850
sS'8442'
p3851
((lp3852
(lp3853
F80.704
aa(lp3854
F0.225
aa(lp3855
F41.293
aa(lp3856
F113.89739377777789
aF4.443883426966298
aF111.51395566666663
atp3857
sS'8443'
p3858
((lp3859
(lp3860
F98.571
aa(lp3861
F80.0
aa(lp3862
F0.0
aa(lp3863
F12.244898142857144
aF0.0
aF0.0
atp3864
sS'8325'
p3865
((lp3866
(lp3867
F80.0
aa(lp3868
F90.0
aa(lp3869
F67.143
aa(lp3870
F0.0
aF0.0
aF48.97959185714285
atp3871
sS'8324'
p3872
((lp3873
(lp3874
F80.0
aa(lp3875
F90.0
aa(lp3876
F90.0
aa(lp3877
F0.0
aF0.0
aI0
atp3878
sS'8327'
p3879
((lp3880
(lp3881
F80.0
aa(lp3882
F90.0
aa(lp3883
F80.0
aa(lp3884
F0.0
aF0.0
aI0
atp3885
sS'8182'
p3886
((lp3887
(lp3888
F87.689
aa(lp3889
F41.424
aa(lp3890
F-0.0
aa(lp3891
F40.882551663615786
aF97.97267666225099
aF0.0
atp3892
sS'8448'
p3893
((lp3894
(lp3895
F90.0
aa(lp3896
F80.0
aa(lp3897
F90.0
aa(lp3898
F0.0
aF0.0
aI0
atp3899
sS'8449'
p3900
((lp3901
(lp3902
F79.455
aa(lp3903
F40.0
aa(lp3904
F100.0
aa(lp3905
F2.9752068181818188
aF0.0
aF0.0
atp3906
sS'8323'
p3907
((lp3908
(lp3909
F98.039
aa(lp3910
F4.375
aa(lp3911
F74.25
aa(lp3912
F15.763168058823506
aF96.484375
aF119.6875
atp3913
sS'8322'
p3914
((lp3915
(lp3916
F80.0
aa(lp3917
F0.0
aa(lp3918
F90.0
aa(lp3919
F0.0
aF0.0
aF0.0
atp3920
sS'8600'
p3921
((lp3922
(lp3923
F86.907
aa(lp3924
F-0.0
aa(lp3925
F39.6
aa(lp3926
F50.22850467010316
aF0.0
aF99.83999999999996
atp3927
sS'8546'
p3928
((lp3929
(lp3930
F70.0
aa(lp3931
F90.0
aa(lp3932
F50.0
aa(lp3933
F0.0
aF0.0
aF0.0
atp3934
sS'8888'
p3935
((lp3936
(lp3937
F90.0
aa(lp3938
F90.0
aa(lp3939
F90.0
aa(lp3940
F0.0
aI0
aI0
atp3941
sS'8889'
p3942
((lp3943
(lp3944
F50.0
aa(lp3945
F0.0
aa(lp3946
F30.0
aa(lp3947
F0.0
aF0.0
aF0.0
atp3948
sS'8884'
p3949
((lp3950
(lp3951
F74.0
aa(lp3952
F90.0
aa(lp3953
F50.0
aa(lp3954
F24.0
aF0.0
aF0.0
atp3955
sS'8013'
p3956
((lp3957
(lp3958
F90.0
aa(lp3959
F80.0
aa(lp3960
F90.0
aa(lp3961
F0.0
aF0.0
aI0
atp3962
sS'8886'
p3963
((lp3964
(lp3965
F90.0
aa(lp3966
F80.0
aa(lp3967
F97.0
aa(lp3968
F0.0
aF0.0
aF0.0
atp3969
sS'8887'
p3970
((lp3971
(lp3972
F90.0
aa(lp3973
F80.0
aa(lp3974
F90.0
aa(lp3975
F0.0
aF0.0
aI0
atp3976
sS'8880'
p3977
((lp3978
(lp3979
F78.75
aa(lp3980
F90.0
aa(lp3981
F100.0
aa(lp3982
F14.0625
aF0.0
aF0.0
atp3983
sS'8881'
p3984
((lp3985
(lp3986
F90.0
aa(lp3987
F90.0
aa(lp3988
F90.0
aa(lp3989
F0.0
aI0
aI0
atp3990
sS'8882'
p3991
((lp3992
(lp3993
F90.0
aa(lp3994
F50.0
aa(lp3995
F90.0
aa(lp3996
F0.0
aF0.0
aI0
atp3997
sS'8883'
p3998
((lp3999
(lp4000
F98.889
aa(lp4001
F0.0
aa(lp4002
F70.5
aa(lp4003
F9.876543222222221
aF0.0
aF30.25
atp4004
sS'8969'
p4005
((lp4006
(lp4007
F73.333
aa(lp4008
F90.0
aa(lp4009
F50.0
aa(lp4010
F22.222222333333335
aF0.0
aF0.0
atp4011
sS'8968'
p4012
((lp4013
(lp4014
F76.471
aa(lp4015
F90.942
aa(lp4016
F-0.0
aa(lp4017
F75.77854688235298
aF8.419748615384576
aF0.0
atp4018
sS'8532'
p4019
((lp4020
(lp4021
F40.701
aa(lp4022
F73.359
aa(lp4023
F0.0
aa(lp4024
F99.50844897047948
aF49.78730848091611
aF0.0
atp4025
sS'8543'
p4026
((lp4027
(lp4028
F90.0
aa(lp4029
F0.0
aa(lp4030
F80.0
aa(lp4031
F0.0
aF0.0
aF0.0
atp4032
sS'8963'
p4033
((lp4034
(lp4035
F90.0
aa(lp4036
F80.0
aa(lp4037
F90.0
aa(lp4038
F0.0
aF0.0
aI0
atp4039
sS'8962'
p4040
((lp4041
(lp4042
F84.211
aa(lp4043
F45.0
aa(lp4044
F0.0
aa(lp4045
F55.955678894736835
aF75.0
aF0.0
atp4046
sS'8961'
p4047
((lp4048
(lp4049
F90.0
aa(lp4050
F42.0
aa(lp4051
F0.0
aa(lp4052
F0.0
aF96.0
aF0.0
atp4053
sS'8960'
p4054
((lp4055
(lp4056
F70.0
aa(lp4057
F90.066
aa(lp4058
F47.6
aa(lp4059
F0.0
aF0.6535665263157896
aF42.24
atp4060
sS'8967'
p4061
((lp4062
(lp4063
F82.5
aa(lp4064
F0.0
aa(lp4065
F41.765
aa(lp4066
F93.75
aF0.0
aF96.88581323529411
atp4067
sS'8966'
p4068
((lp4069
(lp4070
F98.276
aa(lp4071
F0.862
aa(lp4072
F53.333
aa(lp4073
F24.613555310344815
aF7.877526758620688
aF155.55555566666666
atp4074
sS'8965'
p4075
((lp4076
(lp4077
F80.0
aa(lp4078
F0.0
aa(lp4079
F90.0
aa(lp4080
F0.0
aF0.0
aF0.0
atp4081
sS'8964'
p4082
((lp4083
(lp4084
F90.0
aa(lp4085
F0.0
aa(lp4086
F90.0
aa(lp4087
I0
aF0.0
aF0.0
atp4088
sS'9000'
p4089
((lp4090
(lp4091
F80.0
aa(lp4092
F50.0
aa(lp4093
F90.0
aa(lp4094
F0.0
aF0.0
aF0.0
atp4095
sS'8817'
p4096
((lp4097
(lp4098
F80.0
aa(lp4099
F90.0
aa(lp4100
F90.0
aa(lp4101
F0.0
aF0.0
aI0
atp4102
sS'8816'
p4103
((lp4104
(lp4105
F90.0
aa(lp4106
F50.0
aa(lp4107
F76.667
aa(lp4108
F0.0
aF0.0
aF22.22222233333333
atp4109
sS'8815'
p4110
((lp4111
(lp4112
F80.0
aa(lp4113
F90.0
aa(lp4114
F90.0
aa(lp4115
F0.0
aF0.0
aI0
atp4116
sS'8814'
p4117
((lp4118
(lp4119
F90.0
aa(lp4120
F80.0
aa(lp4121
F90.0
aa(lp4122
F0.0
aF0.0
aI0
atp4123
sS'8813'
p4124
((lp4125
(lp4126
F39.775
aa(lp4127
F79.828
aa(lp4128
F0.0
aa(lp4129
F99.94950140449426
aF98.24613572413793
aF0.0
atp4130
sS'8812'
p4131
((lp4132
(lp4133
F80.0
aa(lp4134
F90.0
aa(lp4135
F90.0
aa(lp4136
F0.0
aF0.0
aI0
atp4137
sS'8811'
p4138
((lp4139
(lp4140
F90.0
aa(lp4141
F0.0
aa(lp4142
F30.0
aa(lp4143
F0.0
aF0.0
aF0.0
atp4144
sS'8810'
p4145
((lp4146
(lp4147
F81.285
aa(lp4148
F26.902
aa(lp4149
F50.0
aa(lp4150
F97.14359447791091
aF83.33825617391312
aF0.0
atp4151
sS'8699'
p4152
((lp4153
(lp4154
F90.0
aa(lp4155
F80.0
aa(lp4156
F90.0
aa(lp4157
F0.0
aF0.0
aI0
atp4158
sS'8819'
p4159
((lp4160
(lp4161
F85.172
aa(lp4162
F22.5
aa(lp4163
F50.0
aa(lp4164
F24.970273655172416
aF168.75
aF0.0
atp4165
sS'8698'
p4166
((lp4167
(lp4168
F28.43
aa(lp4169
F79.151
aa(lp4170
F50.0
aa(lp4171
F44.633311037106964
aF99.08083496546703
aF0.0
atp4172
sS'8219'
p4173
((lp4174
(lp4175
F90.0
aa(lp4176
F80.0
aa(lp4177
F90.0
aa(lp4178
F0.0
aF0.0
aI0
atp4179
sS'8581'
p4180
((lp4181
(lp4182
F82.388
aa(lp4183
F0.0
aa(lp4184
F30.0
aa(lp4185
F65.93896191044776
aF0.0
aF0.0
atp4186
sS'8129'
p4187
((lp4188
(lp4189
F90.0
aa(lp4190
F80.0
aa(lp4191
F90.0
aa(lp4192
F0.0
aF0.0
aI0
atp4193
sS'8749'
p4194
((lp4195
(lp4196
F73.254
aa(lp4197
F42.727
aa(lp4198
F90.0
aa(lp4199
F21.951373142857168
aF274.38016536363637
aF0.0
atp4200
sS'8748'
p4201
((lp4202
(lp4203
F55.0
aa(lp4204
F0.0
aa(lp4205
F91.667
aa(lp4206
F75.0
aF0.0
aF13.888889
atp4207
sS'8211'
p4208
((lp4209
(lp4210
F90.0
aa(lp4211
F90.0
aa(lp4212
F90.0
aa(lp4213
F0.0
aI0
aI0
atp4214
sS'8210'
p4215
((lp4216
(lp4217
F90.0
aa(lp4218
F90.0
aa(lp4219
F90.0
aa(lp4220
F0.0
aI0
aI0
atp4221
sS'8213'
p4222
((lp4223
(lp4224
F90.0
aa(lp4225
F80.0
aa(lp4226
F100.0
aa(lp4227
F0.0
aF0.0
aF0.0
atp4228
sS'8744'
p4229
((lp4230
(lp4231
F80.0
aa(lp4232
F90.0
aa(lp4233
F90.0
aa(lp4234
F0.0
aF0.0
aI0
atp4235
sS'8743'
p4236
((lp4237
(lp4238
F-0.0
aa(lp4239
F84.017
aa(lp4240
F45.789
aa(lp4241
F0.0
aF83.86295566666662
aF66.48199468421046
atp4242
sS'8742'
p4243
((lp4244
(lp4245
F0.0
aa(lp4246
F99.951
aa(lp4247
F80.0
aa(lp4248
F0.0
aF0.3512523388735045
aF0.0
atp4249
sS'8217'
p4250
((lp4251
(lp4252
F90.0
aa(lp4253
F80.0
aa(lp4254
F90.0
aa(lp4255
F0.0
aF0.0
aI0
atp4256
sS'8216'
p4257
((lp4258
(lp4259
F70.0
aa(lp4260
F90.0
aa(lp4261
F50.0
aa(lp4262
F0.0
aF0.0
aF0.0
atp4263
sS'8695'
p4264
((lp4265
(lp4266
F88.571
aa(lp4267
F0.0
aa(lp4268
F50.0
aa(lp4269
F12.244898142857148
aF0.0
aF0.0
atp4270
sS'8694'
p4271
((lp4272
(lp4273
F87.794
aa(lp4274
F-0.0
aa(lp4275
F35.882
aa(lp4276
F37.78114188235289
aF0.0
aF83.04498282352938
atp4277
sS'8697'
p4278
((lp4279
(lp4280
F90.0
aa(lp4281
F90.0
aa(lp4282
F90.0
aa(lp4283
F0.0
aI0
aI0
atp4284
sS'8580'
p4285
((lp4286
(lp4287
F60.943
aa(lp4288
F23.333
aa(lp4289
F88.205
aa(lp4290
F99.11000371698114
aF155.55555566666675
aF14.72715320512821
atp4291
sS'8696'
p4292
((lp4293
(lp4294
F90.0
aa(lp4295
F80.0
aa(lp4296
F90.0
aa(lp4297
F0.0
aF0.0
aI0
atp4298
sS'8866'
p4299
((lp4300
(lp4301
F90.0
aa(lp4302
F80.0
aa(lp4303
F90.0
aa(lp4304
F0.0
aF0.0
aI0
atp4305
sS'8691'
p4306
((lp4307
(lp4308
F48.889
aa(lp4309
F90.0
aa(lp4310
F73.636
aa(lp4311
F20.98765433333333
aF0.0
aF23.140496
atp4312
sS'8536'
p4313
((lp4314
(lp4315
F76.667
aa(lp4316
F40.0
aa(lp4317
F95.0
aa(lp4318
F22.222222333333335
aF0.0
aF25.0
atp4319
sS'8690'
p4320
((lp4321
(lp4322
F61.004
aa(lp4323
F90.764
aa(lp4324
F15.517
aa(lp4325
F97.83805707425067
aF63.14972250705394
aF174.20663669230777
atp4326
sS'8178'
p4327
((lp4328
(lp4329
F80.0
aa(lp4330
F90.0
aa(lp4331
F80.0
aa(lp4332
F0.0
aF0.0
aI0
atp4333
sS'8693'
p4334
((lp4335
(lp4336
F72.298
aa(lp4337
F50.0
aa(lp4338
F29.717
aa(lp4339
F40.680212418658314
aF0.0
aF8.410466358490229
atp4340
sS'8311'
p4341
((lp4342
(lp4343
F92.774
aa(lp4344
F17.0
aa(lp4345
F57.607
aa(lp4346
F50.56191470967742
aF189.16666666666666
aF85.66709185714286
atp4347
sS'8179'
p4348
((lp4349
(lp4350
F39.091
aa(lp4351
F0.0
aa(lp4352
F85.0
aa(lp4353
F99.17355372727273
aF0.0
aF75.0
atp4354
sS'8692'
p4355
((lp4356
(lp4357
F90.0
aa(lp4358
F80.0
aa(lp4359
F80.0
aa(lp4360
F0.0
aF0.0
aI0
atp4361
sS'8105'
p4362
((lp4363
(lp4364
F-0.0
aa(lp4365
F92.5
aa(lp4366
F41.3
aa(lp4367
F0.0
aF36.05769230769231
aF141.21000000000004
atp4368
sS'8104'
p4369
((lp4370
(lp4371
F90.0
aa(lp4372
F80.0
aa(lp4373
F50.0
aa(lp4374
F0.0
aF0.0
aF0.0
atp4375
sS'8107'
p4376
((lp4377
(lp4378
F90.0
aa(lp4379
F37.647
aa(lp4380
F75.714
aa(lp4381
F0.0
aF182.69896194117644
aF24.489796
atp4382
sS'8106'
p4383
((lp4384
(lp4385
F90.0
aa(lp4386
F90.0
aa(lp4387
F90.0
aa(lp4388
F0.0
aI0
aI0
atp4389
sS'8101'
p4390
((lp4391
(lp4392
F89.494
aa(lp4393
F41.648
aa(lp4394
F0.0
aa(lp4395
F9.496875506172781
aF97.28293696703282
aF0.0
atp4396
sS'8100'
p4397
((lp4398
(lp4399
F85.865
aa(lp4400
F36.667
aa(lp4401
F0.0
aa(lp4402
F64.8538640977443
aF88.888889
aF0.0
atp4403
sS'8068'
p4404
((lp4405
(lp4406
F-0.0
aa(lp4407
F88.667
aa(lp4408
F43.333
aa(lp4409
F0.0
aF24.888888999999995
aF88.88888899999999
atp4410
sS'8069'
p4411
((lp4412
(lp4413
F0.0
aa(lp4414
F81.0
aa(lp4415
F35.6
aa(lp4416
F0.0
aF99.0
aF80.64000000000001
atp4417
sS'8066'
p4418
((lp4419
(lp4420
F88.889
aa(lp4421
F7.5
aa(lp4422
F63.333
aa(lp4423
F9.876543222222223
aF168.75
aF88.88888899999999
atp4424
sS'8067'
p4425
((lp4426
(lp4427
F0.0
aa(lp4428
F75.0
aa(lp4429
F45.556
aa(lp4430
F0.0
aF75.0
aF69.13580266666666
atp4431
sS'8064'
p4432
((lp4433
(lp4434
F90.0
aa(lp4435
F80.0
aa(lp4436
F90.0
aa(lp4437
F0.0
aF0.0
aI0
atp4438
sS'8065'
p4439
((lp4440
(lp4441
F90.0
aa(lp4442
F90.0
aa(lp4443
F90.0
aa(lp4444
F0.0
aI0
aI0
atp4445
sS'8062'
p4446
((lp4447
(lp4448
F90.0
aa(lp4449
F80.0
aa(lp4450
F90.0
aa(lp4451
F0.0
aF0.0
aI0
atp4452
sS'8063'
p4453
((lp4454
(lp4455
F37.473
aa(lp4456
F-0.0
aa(lp4457
F76.725
aa(lp4458
F93.61454337125704
aF0.0
aF75.82504020467834
atp4459
sS'8060'
p4460
((lp4461
(lp4462
F58.468
aa(lp4463
F11.778
aa(lp4464
F90.426
aa(lp4465
F97.65441138738736
aF205.72839511111104
aF12.58488025531913
atp4466
sS'8061'
p4467
((lp4468
(lp4469
F90.0
aa(lp4470
F90.0
aa(lp4471
F90.0
aa(lp4472
F0.0
aI0
aI0
atp4473
sS'8288'
p4474
((lp4475
(lp4476
F0.346
aa(lp4477
F98.864
aa(lp4478
F49.375
aa(lp4479
F5.074867515151507
aF14.617768727272734
aF130.859375
atp4480
sS'8268'
p4481
((lp4482
(lp4483
F90.0
aa(lp4484
F80.0
aa(lp4485
F90.0
aa(lp4486
F0.0
aF0.0
aI0
atp4487
sS'8269'
p4488
((lp4489
(lp4490
F50.0
aa(lp4491
F90.0
aa(lp4492
F0.0
aa(lp4493
F0.0
aF0.0
aF0.0
atp4494
sS'8429'
p4495
((lp4496
(lp4497
F89.792
aa(lp4498
F46.912
aa(lp4499
F70.0
aa(lp4500
F2.0399306666666646
aF118.40397929411756
aF0.0
atp4501
sS'8265'
p4502
((lp4503
(lp4504
F71.222
aa(lp4505
F41.111
aa(lp4506
F90.5
aa(lp4507
F10.172839555555562
aF223.76543211111112
aF4.75
atp4508
sS'8266'
p4509
((lp4510
(lp4511
F100.0
aa(lp4512
F100.0
aa(lp4513
F100.0
aa(lp4514
F0.0
aI0
aI0
atp4515
sS'8267'
p4516
((lp4517
(lp4518
F2.727
aa(lp4519
F89.545
aa(lp4520
F51.579
aa(lp4521
F44.07713506060607
aF67.97520681818186
aF129.08587257894737
atp4522
sS'8260'
p4523
((lp4524
(lp4525
F90.0
aa(lp4526
F90.0
aa(lp4527
F90.0
aa(lp4528
F0.0
aI0
aI0
atp4529
sS'8261'
p4530
((lp4531
(lp4532
F0.271
aa(lp4533
F90.632
aa(lp4534
F60.0
aa(lp4535
F3.447482666666668
aF5.874065509433959
aF100.0
atp4536
sS'8262'
p4537
((lp4538
(lp4539
F-0.0
aa(lp4540
F39.494
aa(lp4541
F79.824
aa(lp4542
F0.0
aF99.74421990804672
aF99.9690239999992
atp4543
sS'8263'
p4544
((lp4545
(lp4546
F97.533
aa(lp4547
F12.25
aa(lp4548
F90.135
aa(lp4549
F3.4488890000000003
aF78.6875
aF2.4411979729729727
atp4550
sS'8006'
p4551
((lp4552
(lp4553
F90.0
aa(lp4554
F90.0
aa(lp4555
F90.0
aa(lp4556
F0.0
aI0
aI0
atp4557
sS'8513'
p4558
((lp4559
(lp4560
F72.0
aa(lp4561
F0.0
aa(lp4562
F90.0
aa(lp4563
F16.0
aF0.0
aF0.0
atp4564
sS'8289'
p4565
((lp4566
(lp4567
F71.058
aa(lp4568
F-0.0
aa(lp4569
F47.325
aa(lp4570
F20.035133230769265
aF0.0
aF46.34670780254759
atp4571
sS'8660'
p4572
((lp4573
(lp4574
F90.0
aa(lp4575
F80.0
aa(lp4576
F90.0
aa(lp4577
F0.0
aF0.0
aI0
atp4578
sS'8661'
p4579
((lp4580
(lp4581
F88.885
aa(lp4582
F0.118
aa(lp4583
F41.154
aa(lp4584
F87.9376512295079
aF1.162629882352943
aF117.89940830769251
atp4585
sS'8662'
p4586
((lp4587
(lp4588
F-0.0
aa(lp4589
F90.0
aa(lp4590
F30.0
aa(lp4591
F0.0
aF0.0
aF0.0
atp4592
sS'8663'
p4593
((lp4594
(lp4595
F80.0
aa(lp4596
F90.0
aa(lp4597
F90.0
aa(lp4598
F0.0
aF0.0
aI0
atp4599
sS'8664'
p4600
((lp4601
(lp4602
F94.286
aa(lp4603
F0.0
aa(lp4604
F79.615
aa(lp4605
F24.489796000000002
aF0.0
aF3.6982250000000056
atp4606
sS'8665'
p4607
((lp4608
(lp4609
F35.749
aa(lp4610
F-0.0
aa(lp4611
F82.655
aa(lp4612
F81.92973425213152
aF0.0
aF91.81908149717516
atp4613
sS'8666'
p4614
((lp4615
(lp4616
F0.0
aa(lp4617
F77.273
aa(lp4618
F44.545
aa(lp4619
F0.0
aF92.56198354545457
aF79.33884318181819
atp4620
sS'8667'
p4621
((lp4622
(lp4623
F80.0
aa(lp4624
F90.0
aa(lp4625
F90.0
aa(lp4626
F0.0
aF0.0
aI0
atp4627
sS'8668'
p4628
((lp4629
(lp4630
F0.11
aa(lp4631
F89.404
aa(lp4632
F38.387
aa(lp4633
F1.7414150684931518
aF58.00218847706416
aF100.62434964516127
atp4634
sS'8669'
p4635
((lp4636
(lp4637
F30.0
aa(lp4638
F-0.0
aa(lp4639
F57.014
aa(lp4640
F0.0
aF0.0
aF169.7580917345973
atp4641
sS'8583'
p4642
((lp4643
(lp4644
F76.327
aa(lp4645
F-0.0
aa(lp4646
F41.053
aa(lp4647
F80.38317389795921
aF0.0
aF98.89196689473678
atp4648
sS'8582'
p4649
((lp4650
(lp4651
F90.0
aa(lp4652
F80.0
aa(lp4653
F90.0
aa(lp4654
F0.0
aF0.0
aI0
atp4655
sS'8585'
p4656
((lp4657
(lp4658
F90.083
aa(lp4659
F80.0
aa(lp4660
F99.909
aa(lp4661
F0.15972233333333333
aF0.0
aF0.17355372727272725
atp4662
sS'8584'
p4663
((lp4664
(lp4665
F57.692
aa(lp4666
F89.81
aa(lp4667
F0.0
aa(lp4668
F94.67455630769228
aF1.8684809523809567
aF0.0
atp4669
sS'8587'
p4670
((lp4671
(lp4672
F90.0
aa(lp4673
F90.0
aa(lp4674
F90.0
aa(lp4675
F0.0
aI0
aI0
atp4676
sS'8586'
p4677
((lp4678
(lp4679
F89.466
aa(lp4680
F26.242
aa(lp4681
F50.0
aa(lp4682
F10.232664090614826
aF97.8357317018632
aF0.0
atp4683
sS'8510'
p4684
((lp4685
(lp4686
F58.847
aa(lp4687
F3.74
aa(lp4688
F84.088
aa(lp4689
F82.86432736734697
aF69.55351715976344
aF74.54172202197799
atp4690
sS'8360'
p4691
((lp4692
(lp4693
F85.745
aa(lp4694
F0.0
aa(lp4695
F35.0
aa(lp4696
F37.21140797872345
aF0.0
aF75.0
atp4697
sS'8363'
p4698
((lp4699
(lp4700
F74.077
aa(lp4701
F1.071
aa(lp4702
F53.018
aa(lp4703
F54.455621307692304
aF14.923469571428571
aF55.24530645614031
atp4704
sS'8362'
p4705
((lp4706
(lp4707
F89.736
aa(lp4708
F0.0
aa(lp4709
F46.0
aa(lp4710
F3.6243134142480407
aF0.0
aF64.0
atp4711
sS'8365'
p4712
((lp4713
(lp4714
F88.069
aa(lp4715
F0.646
aa(lp4716
F30.708
aa(lp4717
F125.77392368980453
aF6.036052494844825
aF110.56073302654842
atp4718
sS'8364'
p4719
((lp4720
(lp4721
F90.0
aa(lp4722
F90.0
aa(lp4723
F90.0
aa(lp4724
F0.0
aI0
aI0
atp4725
sS'8367'
p4726
((lp4727
(lp4728
F71.111
aa(lp4729
F90.0
aa(lp4730
F46.0
aa(lp4731
F9.87654322222223
aF0.0
aF64.0
atp4732
sS'8366'
p4733
((lp4734
(lp4735
F89.13
aa(lp4736
F0.0
aa(lp4737
F50.0
aa(lp4738
F16.63516086956524
aF0.0
aF0.0
atp4739
sS'8369'
p4740
((lp4741
(lp4742
F0.0
aa(lp4743
F84.581
aa(lp4744
F41.831
aa(lp4745
F0.0
aF77.3384101620113
aF96.64749057746481
atp4746
sS'8368'
p4747
((lp4748
(lp4749
F90.0
aa(lp4750
F80.0
aa(lp4751
F90.0
aa(lp4752
F0.0
aF0.0
aI0
atp4753
sS'8278'
p4754
((lp4755
(lp4756
F90.0
aa(lp4757
F80.0
aa(lp4758
F90.0
aa(lp4759
F0.0
aF0.0
aI0
atp4760
sS'8275'
p4761
((lp4762
(lp4763
F81.667
aa(lp4764
F0.0
aa(lp4765
F45.676
aa(lp4766
F94.84126995238096
aF0.0
aF67.78670572972975
atp4767
sS'8567'
p4768
((lp4769
(lp4770
F83.913
aa(lp4771
F-0.0
aa(lp4772
F42.5
aa(lp4773
F84.68809073913042
aF0.0
aF93.75
atp4774
sS'8566'
p4775
((lp4776
(lp4777
F89.375
aa(lp4778
F0.0
aa(lp4779
F30.0
aa(lp4780
F5.859375
aF0.0
aF0.0
atp4781
sS'8565'
p4782
((lp4783
(lp4784
F89.633
aa(lp4785
F66.004
aa(lp4786
F13.366
aa(lp4787
F3.53951839632545
aF63.946706344061774
aF222.33114411881172
atp4788
sS'8564'
p4789
((lp4790
(lp4791
F90.0
aa(lp4792
F80.0
aa(lp4793
F90.0
aa(lp4794
F0.0
aF0.0
aI0
atp4795
sS'8601'
p4796
((lp4797
(lp4798
F90.0
aa(lp4799
F90.0
aa(lp4800
F90.0
aa(lp4801
F0.0
aI0
aI0
atp4802
sS'8562'
p4803
((lp4804
(lp4805
F34.262
aa(lp4806
F0.0
aa(lp4807
F78.824
aa(lp4808
F67.0787423606557
aF0.0
aF69.20415247058824
atp4809
sS'8561'
p4810
((lp4811
(lp4812
F80.0
aa(lp4813
F90.0
aa(lp4814
F80.0
aa(lp4815
F0.0
aF0.0
aI0
atp4816
sS'8560'
p4817
((lp4818
(lp4819
F57.0
aa(lp4820
F88.964
aa(lp4821
F-0.0
aa(lp4822
F131.0
aF9.288840041450795
aF0.0
atp4823
sS'8400'
p4824
((lp4825
(lp4826
F82.895
aa(lp4827
F37.692
aa(lp4828
F-0.0
aa(lp4829
F91.62049868421056
aF94.67455630769231
aF0.0
atp4830
sS'8401'
p4831
((lp4832
(lp4833
F70.0
aa(lp4834
F90.0
aa(lp4835
F50.0
aa(lp4836
F0.0
aF0.0
aF0.0
atp4837
sS'8402'
p4838
((lp4839
(lp4840
F85.313
aa(lp4841
F0.0
aa(lp4842
F38.113
aa(lp4843
F71.77734399999997
aF0.0
aF96.44001428301885
atp4844
sS'8403'
p4845
((lp4846
(lp4847
F90.0
aa(lp4848
F80.0
aa(lp4849
F90.0
aa(lp4850
F0.0
aF0.0
aI0
atp4851
sS'8404'
p4852
((lp4853
(lp4854
F0.0
aa(lp4855
F90.0
aa(lp4856
F0.0
aa(lp4857
F0.0
aF0.0
aI0
atp4858
sS'8405'
p4859
((lp4860
(lp4861
F90.0
aa(lp4862
F90.0
aa(lp4863
F90.0
aa(lp4864
F0.0
aI0
aI0
atp4865
sS'8569'
p4866
((lp4867
(lp4868
F90.0
aa(lp4869
F80.0
aa(lp4870
F90.0
aa(lp4871
F0.0
aF0.0
aI0
atp4872
sS'8568'
p4873
((lp4874
(lp4875
F90.0
aa(lp4876
F45.0
aa(lp4877
F76.667
aa(lp4878
F0.0
aF75.0
aF22.22222233333333
atp4879
sS'8051'
p4880
((lp4881
(lp4882
F90.0
aa(lp4883
F80.0
aa(lp4884
F80.0
aa(lp4885
F0.0
aF0.0
aI0
atp4886
sS'8747'
p4887
((lp4888
(lp4889
F0.0
aa(lp4890
F90.643
aa(lp4891
F78.667
aa(lp4892
F0.0
aF6.8010204285714275
aF8.888889
atp4893
sS'8868'
p4894
((lp4895
(lp4896
F48.613
aa(lp4897
F-0.0
aa(lp4898
F75.758
aa(lp4899
F25.82111004046242
aF0.0
aF80.18365490909113
atp4900
sS'8007'
p4901
((lp4902
(lp4903
F0.0
aa(lp4904
F97.882
aa(lp4905
F30.0
aa(lp4906
F0.0
aF22.103806352941163
aF0.0
atp4907
sS'8272'
p4908
((lp4909
(lp4910
F90.0
aa(lp4911
F80.0
aa(lp4912
F80.0
aa(lp4913
F0.0
aF0.0
aI0
atp4914
sS'8141'
p4915
((lp4916
(lp4917
F90.0
aa(lp4918
F80.0
aa(lp4919
F90.0
aa(lp4920
F0.0
aF0.0
aI0
atp4921
sS'8229'
p4922
((lp4923
(lp4924
F89.842
aa(lp4925
F76.5
aa(lp4926
F100.0
aa(lp4927
F0.4487534736842106
aF2.25
aF0.0
atp4928
sS'8270'
p4929
((lp4930
(lp4931
F79.0
aa(lp4932
F0.0
aa(lp4933
F90.0
aa(lp4934
F9.0
aF0.0
aF0.0
atp4935
sS'8867'
p4936
((lp4937
(lp4938
F90.0
aa(lp4939
F80.0
aa(lp4940
F90.0
aa(lp4941
F0.0
aF0.0
aI0
atp4942
sS'8143'
p4943
((lp4944
(lp4945
F90.0
aa(lp4946
F0.0
aa(lp4947
F30.0
aa(lp4948
F0.0
aF0.0
aF0.0
atp4949
sS'8142'
p4950
((lp4951
(lp4952
F50.0
aa(lp4953
F78.571
aa(lp4954
F27.052
aa(lp4955
F0.0
aF89.38775528571418
aF79.74873868208087
atp4956
sS'8710'
p4957
((lp4958
(lp4959
F0.806
aa(lp4960
F90.571
aa(lp4961
F60.3
aa(lp4962
F19.51092632258064
aF52.01632671428572
aF76.41
atp4963
sS'8869'
p4964
((lp4965
(lp4966
F80.111
aa(lp4967
F-0.0
aa(lp4968
F44.286
aa(lp4969
F88.17962727306276
aF0.0
aF81.63265314285705
atp4970
sS'8144'
p4971
((lp4972
(lp4973
F90.0
aa(lp4974
F0.0
aa(lp4975
F80.0
aa(lp4976
F0.0
aF0.0
aF0.0
atp4977
sS'8314'
p4978
((lp4979
(lp4980
F0.488
aa(lp4981
F75.0
aa(lp4982
F91.667
aa(lp4983
F9.518143999999998
aF25.0
aF13.888889
atp4984
sS'8315'
p4985
((lp4986
(lp4987
F75.842
aa(lp4988
F0.0
aa(lp4989
F92.094
aa(lp4990
F59.71191136842104
aF0.0
aF15.58496099999999
atp4991
sS'8316'
p4992
((lp4993
(lp4994
F90.0
aa(lp4995
F80.0
aa(lp4996
F90.0
aa(lp4997
F0.0
aF0.0
aI0
atp4998
sS'8317'
p4999
((lp5000
(lp5001
F90.0
aa(lp5002
F80.0
aa(lp5003
F80.0
aa(lp5004
F0.0
aI0
aF0.0
atp5005
sS'8310'
p5006
((lp5007
(lp5008
F90.0
aa(lp5009
F80.0
aa(lp5010
F90.0
aa(lp5011
F0.0
aF0.0
aI0
atp5012
sS'8753'
p5013
((lp5014
(lp5015
F86.4
aa(lp5016
F0.0
aa(lp5017
F38.0
aa(lp5018
F59.040000000000035
aF0.0
aF96.0
atp5019
sS'8312'
p5020
((lp5021
(lp5022
F76.061
aa(lp5023
F0.0
aa(lp5024
F40.741
aa(lp5025
F81.45087251515146
aF0.0
aF99.45130322222224
atp5026
sS'8313'
p5027
((lp5028
(lp5029
F43.317
aa(lp5030
F-0.0
aa(lp5031
F76.892
aa(lp5032
F88.99944660598469
aF0.0
aF89.94460423904384
atp5033
sS'8109'
p5034
((lp5035
(lp5036
F87.136
aa(lp5037
F44.098
aa(lp5038
F0.0
aa(lp5039
F48.61776872727265
aF83.20344006557377
aF0.0
atp5040
sS'8630'
p5041
((lp5042
(lp5043
F90.0
aa(lp5044
F0.0
aa(lp5045
F80.0
aa(lp5046
F0.0
aF0.0
aF0.0
atp5047
sS'8318'
p5048
((lp5049
(lp5050
F90.0
aa(lp5051
F80.0
aa(lp5052
F90.0
aa(lp5053
F0.0
aF0.0
aI0
atp5054
sS'8319'
p5055
((lp5056
(lp5057
F90.0
aa(lp5058
F80.0
aa(lp5059
F90.0
aa(lp5060
F0.0
aF0.0
aI0
atp5061
sS'8084'
p5062
((lp5063
(lp5064
F71.833
aa(lp5065
F90.0
aa(lp5066
F44.516
aa(lp5067
F14.138889000000006
aF0.0
aF127.99167535483863
atp5068
sS'8085'
p5069
((lp5070
(lp5071
F-0.0
aa(lp5072
F38.571
aa(lp5073
F78.421
aa(lp5074
F0.0
aF97.9591838571428
aF97.50692521052638
atp5075
sS'8086'
p5076
((lp5077
(lp5078
F90.0
aa(lp5079
F80.0
aa(lp5080
F90.0
aa(lp5081
F0.0
aF0.0
aI0
atp5082
sS'8087'
p5083
((lp5084
(lp5085
F75.139
aa(lp5086
F47.931
aa(lp5087
F0.0
aa(lp5088
F72.20293211111112
aF37.098692034482724
aF0.0
atp5089
sS'8080'
p5090
((lp5091
(lp5092
F90.0
aa(lp5093
F80.0
aa(lp5094
F90.0
aa(lp5095
F0.0
aF0.0
aI0
atp5096
sS'8081'
p5097
((lp5098
(lp5099
F56.0
aa(lp5100
F25.5
aa(lp5101
F89.84
aa(lp5102
F84.0
aF114.75
aF1.5743999999999987
atp5103
sS'8082'
p5104
((lp5105
(lp5106
F80.0
aa(lp5107
F90.0
aa(lp5108
F80.0
aa(lp5109
F0.0
aF0.0
aI0
atp5110
sS'8083'
p5111
((lp5112
(lp5113
F88.81
aa(lp5114
F0.0
aa(lp5115
F50.0
aa(lp5116
F10.487528571428564
aF0.0
aF0.0
atp5117
sS'8088'
p5118
((lp5119
(lp5120
F90.0
aa(lp5121
F80.0
aa(lp5122
F90.0
aa(lp5123
F0.0
aF0.0
aI0
atp5124
sS'8089'
p5125
((lp5126
(lp5127
F90.0
aa(lp5128
F2.5
aa(lp5129
F66.575
aa(lp5130
F0.0
aF68.75
aF56.77482389502771
atp5131
sS'8912'
p5132
((lp5133
(lp5134
F90.0
aa(lp5135
F50.0
aa(lp5136
F70.0
aa(lp5137
F0.0
aF0.0
aF0.0
atp5138
sS'8913'
p5139
((lp5140
(lp5141
F98.0
aa(lp5142
F77.5
aa(lp5143
F56.667
aa(lp5144
F16.0
aF18.75
aF22.222222333333335
atp5145
sS'8910'
p5146
((lp5147
(lp5148
F90.0
aa(lp5149
F90.0
aa(lp5150
F90.0
aa(lp5151
F0.0
aI0
aI0
atp5152
sS'8911'
p5153
((lp5154
(lp5155
F90.0
aa(lp5156
F80.0
aa(lp5157
F90.0
aa(lp5158
F0.0
aF0.0
aI0
atp5159
sS'8916'
p5160
((lp5161
(lp5162
F82.867
aa(lp5163
F0.225
aa(lp5164
F40.0
aa(lp5165
F107.10017105128222
aF2.843582746478874
aF102.91428571428571
atp5166
sS'8917'
p5167
((lp5168
(lp5169
F90.0
aa(lp5170
F44.643
aa(lp5171
F70.0
aa(lp5172
F0.0
aF78.44387757142852
aF0.0
atp5173
sS'8914'
p5174
((lp5175
(lp5176
F90.0
aa(lp5177
F80.0
aa(lp5178
F90.0
aa(lp5179
F0.0
aF0.0
aI0
atp5180
sS'8915'
p5181
((lp5182
(lp5183
F70.0
aa(lp5184
F90.0
aa(lp5185
F43.333
aa(lp5186
F0.0
aF0.0
aF88.88888899999999
atp5187
sS'8853'
p5188
((lp5189
(lp5190
F81.318
aa(lp5191
F29.552
aa(lp5192
F50.0
aa(lp5193
F87.8078512727272
aF13.232345791044764
aF0.0
atp5194
sS'8852'
p5195
((lp5196
(lp5197
F90.0
aa(lp5198
F80.0
aa(lp5199
F90.0
aa(lp5200
F0.0
aF0.0
aI0
atp5201
sS'8918'
p5202
((lp5203
(lp5204
F90.0
aa(lp5205
F90.0
aa(lp5206
F90.0
aa(lp5207
F0.0
aI0
aI0
atp5208
sS'8919'
p5209
((lp5210
(lp5211
F84.4
aa(lp5212
F0.0
aa(lp5213
F40.0
aa(lp5214
F56.63999999999999
aF0.0
aF100.0
atp5215
sS'8857'
p5216
((lp5217
(lp5218
F60.0
aa(lp5219
F73.667
aa(lp5220
F96.5
aa(lp5221
F0.0
aF6.222222333333335
aF12.25
atp5222
sS'8856'
p5223
((lp5224
(lp5225
F2.752
aa(lp5226
F49.892
aa(lp5227
F80.0
aa(lp5228
F23.70779459829058
aF0.9214632565055763
aF0.0
atp5229
sS'8855'
p5230
((lp5231
(lp5232
F82.719
aa(lp5233
F0.0
aa(lp5234
F39.16
aa(lp5235
F102.25453994736858
aF0.0
aF99.29491297709937
atp5236
sS'8854'
p5237
((lp5238
(lp5239
F90.0
aa(lp5240
F70.0
aa(lp5241
F100.0
aa(lp5242
F0.0
aF0.0
aF0.0
atp5243
sS'8218'
p5244
((lp5245
(lp5246
F80.0
aa(lp5247
F90.0
aa(lp5248
F80.0
aa(lp5249
F0.0
aF0.0
aI0
atp5250
sS'8002'
p5251
((lp5252
(lp5253
F88.846
aa(lp5254
F0.0
aa(lp5255
F50.0
aa(lp5256
F10.207100615384604
aF0.0
aF0.0
atp5257
sS'8927'
p5258
((lp5259
(lp5260
F90.0
aa(lp5261
F10.0
aa(lp5262
F10.0
aa(lp5263
F0.0
aF0.0
aI0
atp5264
sS'8003'
p5265
((lp5266
(lp5267
F80.0
aa(lp5268
F90.0
aa(lp5269
F90.0
aa(lp5270
F0.0
aF0.0
aI0
atp5271
sS'8926'
p5272
((lp5273
(lp5274
F90.0
aa(lp5275
F-0.0
aa(lp5276
F80.0
aa(lp5277
F0.0
aF0.0
aF0.0
atp5278
sS'8930'
p5279
((lp5280
(lp5281
F90.278
aa(lp5282
F19.5
aa(lp5283
F78.857
aa(lp5284
F2.700617333333334
aF236.25
aF26.122449000000024
atp5285
sS'8515'
p5286
((lp5287
(lp5288
F90.0
aa(lp5289
F70.0
aa(lp5290
F90.0
aa(lp5291
F0.0
aF0.0
aI0
atp5292
sS'8746'
p5293
((lp5294
(lp5295
F73.333
aa(lp5296
F42.0
aa(lp5297
F90.0
aa(lp5298
F22.222222333333335
aF96.0
aF0.0
atp5299
sS'8931'
p5300
((lp5301
(lp5302
F59.368
aa(lp5303
F8.992
aa(lp5304
F93.078
aa(lp5305
F107.41314622222217
aF182.4633485528452
aF28.85516677404919
atp5306
sS'8250'
p5307
((lp5308
(lp5309
F2.222
aa(lp5310
F91.077
aa(lp5311
F64.5
aa(lp5312
F39.506172888888884
aF25.455621307692304
aF89.58333333333333
atp5313
sS'8745'
p5314
((lp5315
(lp5316
F90.0
aa(lp5317
F26.667
aa(lp5318
F80.0
aa(lp5319
F0.0
aF422.2222223333333
aF0.0
atp5320
sS'8220'
p5321
((lp5322
(lp5323
F70.52
aa(lp5324
F90.0
aa(lp5325
F46.695
aa(lp5326
F5.343165072765109
aF0.0
aF80.60183855932203
atp5327
sS'8221'
p5328
((lp5329
(lp5330
F90.0
aa(lp5331
F80.0
aa(lp5332
F80.0
aa(lp5333
F0.0
aF0.0
aI0
atp5334
sS'8222'
p5335
((lp5336
(lp5337
F90.0
aa(lp5338
F80.0
aa(lp5339
F90.0
aa(lp5340
F0.0
aF0.0
aI0
atp5341
sS'8212'
p5342
((lp5343
(lp5344
F0.0
aa(lp5345
F70.0
aa(lp5346
F84.0
aa(lp5347
F0.0
aF0.0
aF24.0
atp5348
sS'8224'
p5349
((lp5350
(lp5351
F77.667
aa(lp5352
F90.063
aa(lp5353
F50.0
aa(lp5354
F11.222222333333335
aF2.558594000000001
aF0.0
atp5355
sS'8225'
p5356
((lp5357
(lp5358
F36.667
aa(lp5359
F90.0
aa(lp5360
F70.0
aa(lp5361
F88.88888899999999
aF0.0
aF0.0
atp5362
sS'8639'
p5363
((lp5364
(lp5365
F-0.0
aa(lp5366
F55.0
aa(lp5367
F89.667
aa(lp5368
F0.0
aF75.0
aF3.2222223333333346
atp5369
sS'8638'
p5370
((lp5371
(lp5372
F89.949
aa(lp5373
F16.29
aa(lp5374
F63.784
aa(lp5375
F0.5024999898989891
aF223.3350677419351
aF85.6829803243239
atp5376
sS'8228'
p5377
((lp5378
(lp5379
F78.824
aa(lp5380
F0.0
aa(lp5381
F42.593
aa(lp5382
F96.65513286274509
aF0.0
aF93.2784638148148
atp5383
sS'8215'
p5384
((lp5385
(lp5386
F0.0
aa(lp5387
F74.815
aa(lp5388
F40.265
aa(lp5389
F0.0
aF58.29903981481481
aF99.92951703539835
atp5390
sS'8635'
p5391
((lp5392
(lp5393
F30.0
aa(lp5394
F85.862
aa(lp5395
F50.0
aa(lp5396
F0.0
aF31.15338882758621
aF0.0
atp5397
sS'8634'
p5398
((lp5399
(lp5400
F26.5
aa(lp5401
F70.7
aa(lp5402
F4.75
aa(lp5403
F29.05
aF90.01
aF23.6875
atp5404
sS'8633'
p5405
((lp5406
(lp5407
F90.0
aa(lp5408
F80.0
aa(lp5409
F90.0
aa(lp5410
F0.0
aF0.0
aI0
atp5411
sS'8632'
p5412
((lp5413
(lp5414
F90.0
aa(lp5415
F80.0
aa(lp5416
F90.0
aa(lp5417
F0.0
aF0.0
aI0
atp5418
sS'8631'
p5419
((lp5420
(lp5421
F89.146
aa(lp5422
F0.0
aa(lp5423
F46.0
aa(lp5424
F15.124925756097552
aF0.0
aF64.0
atp5425
sS'8214'
p5426
((lp5427
(lp5428
F74.569
aa(lp5429
F21.25
aa(lp5430
F50.0
aa(lp5431
F66.19351962068977
aF185.9375
aF0.0
atp5432
sS'8154'
p5433
((lp5434
(lp5435
F-0.0
aa(lp5436
F78.696
aa(lp5437
F40.0
aa(lp5438
F0.0
aF98.29867686956514
aF100.0
atp5439
sS'8741'
p5440
((lp5441
(lp5442
F90.0
aa(lp5443
F80.0
aa(lp5444
F90.0
aa(lp5445
F0.0
aF0.0
aI0
atp5446
sS'8253'
p5447
((lp5448
(lp5449
F90.0
aa(lp5450
F0.0
aa(lp5451
F80.0
aa(lp5452
F0.0
aF0.0
aF0.0
atp5453
sS'8740'
p5454
((lp5455
(lp5456
F82.188
aa(lp5457
F44.545
aa(lp5458
F0.0
aa(lp5459
F82.71484400000006
aF79.33884318181816
aF0.0
atp5460
sS'8053'
p5461
((lp5462
(lp5463
F90.0
aa(lp5464
F80.0
aa(lp5465
F80.0
aa(lp5466
F0.0
aF0.0
aI0
atp5467
sS'8790'
p5468
((lp5469
(lp5470
F-0.0
aa(lp5471
F80.459
aa(lp5472
F35.275
aa(lp5473
F0.0
aF99.78958008256889
aF77.671778846154
atp5474
sS'8460'
p5475
((lp5476
(lp5477
F90.0
aa(lp5478
F0.0
aa(lp5479
F90.0
aa(lp5480
F0.0
aF0.0
aI0
atp5481
sS'8227'
p5482
((lp5483
(lp5484
F84.43
aa(lp5485
F0.0
aa(lp5486
F44.783
aa(lp5487
F62.650216455696274
aF0.0
aF77.1266542173913
atp5488
sS'8702'
p5489
((lp5490
(lp5491
F90.0
aa(lp5492
F90.0
aa(lp5493
F90.0
aa(lp5494
F0.0
aI0
aI0
atp5495
sS'8701'
p5496
((lp5497
(lp5498
F2.731
aa(lp5499
F82.656
aa(lp5500
F46.099
aa(lp5501
F29.46553593472598
aF123.53740093506481
aF120.96049406930695
atp5502
sS'8461'
p5503
((lp5504
(lp5505
F90.0
aa(lp5506
F80.0
aa(lp5507
F80.0
aa(lp5508
F0.0
aF0.0
aI0
atp5509
sS'8707'
p5510
((lp5511
(lp5512
F0.0
aa(lp5513
F78.442
aa(lp5514
F40.571
aa(lp5515
F0.0
aF70.29853283116886
aF99.67346957142868
atp5516
sS'8929'
p5517
((lp5518
(lp5519
F79.542
aa(lp5520
F37.889
aa(lp5521
F0.0
aa(lp5522
F99.79067903267945
aF96.65432099999988
aF0.0
atp5523
sS'8705'
p5524
((lp5525
(lp5526
F46.28
aa(lp5527
F88.446
aa(lp5528
F1.625
aa(lp5529
F137.74979784946245
aF107.34628790082645
aF23.448660714285715
atp5530
sS'8704'
p5531
((lp5532
(lp5533
F64.667
aa(lp5534
F2.5
aa(lp5535
F90.0
aa(lp5536
F78.22222233333332
aF68.75
aF0.0
atp5537
sS'8709'
p5538
((lp5539
(lp5540
F88.462
aa(lp5541
F0.0
aa(lp5542
F30.0
aa(lp5543
F28.40236707692306
aF0.0
aF0.0
atp5544
sS'8928'
p5545
((lp5546
(lp5547
F40.146
aa(lp5548
F-0.0
aa(lp5549
F75.664
aa(lp5550
F99.97858429268284
aF0.0
aF79.42673670796465
atp5551
sS'8052'
p5552
((lp5553
(lp5554
F100.0
aa(lp5555
F80.0
aa(lp5556
F90.0
aa(lp5557
F0.0
aF0.0
aF0.0
atp5558
sS'8035'
p5559
((lp5560
(lp5561
F41.65
aa(lp5562
F80.937
aa(lp5563
F-0.0
aa(lp5564
F97.27589805825232
aF99.12109400000011
aF0.0
atp5565
sS'8034'
p5566
((lp5567
(lp5568
F90.0
aa(lp5569
F90.0
aa(lp5570
F90.0
aa(lp5571
F0.0
aI0
aI0
atp5572
sS'8037'
p5573
((lp5574
(lp5575
F81.17
aa(lp5576
F-0.0
aa(lp5577
F45.795
aa(lp5578
F98.47114358974402
aF0.0
aF66.42142897350963
atp5579
sS'8036'
p5580
((lp5581
(lp5582
F90.0
aa(lp5583
F80.0
aa(lp5584
F90.0
aa(lp5585
F0.0
aF0.0
aI0
atp5586
sS'8031'
p5587
((lp5588
(lp5589
F90.0
aa(lp5590
F0.0
aa(lp5591
F80.0
aa(lp5592
F0.0
aF0.0
aF0.0
atp5593
sS'8030'
p5594
((lp5595
(lp5596
F95.385
aa(lp5597
F0.714
aa(lp5598
F50.0
aa(lp5599
F24.85207115384617
aF6.6326531428571425
aF0.0
atp5600
sS'8033'
p5601
((lp5602
(lp5603
F89.296
aa(lp5604
F-0.0
aa(lp5605
F42.549
aa(lp5606
F12.585578264151055
aF0.0
aF93.50249903921575
atp5607
sS'8032'
p5608
((lp5609
(lp5610
F80.0
aa(lp5611
F90.0
aa(lp5612
F90.0
aa(lp5613
F0.0
aF0.0
aI0
atp5614
sS'8039'
p5615
((lp5616
(lp5617
F84.837
aa(lp5618
F-0.0
aa(lp5619
F41.481
aa(lp5620
F76.60541172996996
aF0.0
aF97.80521285185195
atp5621
sS'8038'
p5622
((lp5623
(lp5624
F90.0
aa(lp5625
F80.0
aa(lp5626
F90.0
aa(lp5627
F0.0
aF0.0
aI0
atp5628
sS'8152'
p5629
((lp5630
(lp5631
F90.0
aa(lp5632
F90.0
aa(lp5633
F90.0
aa(lp5634
F0.0
aI0
aI0
atp5635
sS'8682'
p5636
((lp5637
(lp5638
F-0.0
aa(lp5639
F84.873
aa(lp5640
F40.458
aa(lp5641
F0.0
aF76.2529310304566
aF99.79039050602428
atp5642
sS'8755'
p5643
((lp5644
(lp5645
F95.625
aa(lp5646
F80.0
aa(lp5647
F0.0
aa(lp5648
F24.609375
aF0.0
aF0.0
atp5649
sS'8529'
p5650
((lp5651
(lp5652
F33.158
aa(lp5653
F0.0
aa(lp5654
F90.0
aa(lp5655
F53.1855955789474
aF0.0
aF0.0
atp5656
sS'8528'
p5657
((lp5658
(lp5659
F90.0
aa(lp5660
F80.0
aa(lp5661
F90.0
aa(lp5662
F0.0
aF0.0
aI0
atp5663
sS'8138'
p5664
((lp5665
(lp5666
F99.864
aa(lp5667
F80.0
aa(lp5668
F96.0
aa(lp5669
F0.1177687272727273
aF0.0
aF0.0
atp5670
sS'8139'
p5671
((lp5672
(lp5673
F90.0
aa(lp5674
F80.0
aa(lp5675
F90.0
aa(lp5676
F0.0
aF0.0
aI0
atp5677
sS'8684'
p5678
((lp5679
(lp5680
F90.0
aa(lp5681
F80.0
aa(lp5682
F90.0
aa(lp5683
F0.0
aF0.0
aI0
atp5684
sS'8685'
p5685
((lp5686
(lp5687
F72.353
aa(lp5688
F90.0
aa(lp5689
F47.5
aa(lp5690
F17.9930795882353
aF0.0
aF43.75
atp5691
sS'8134'
p5692
((lp5693
(lp5694
F90.0
aa(lp5695
F70.0
aa(lp5696
F50.0
aa(lp5697
F0.0
aF0.0
aF0.0
atp5698
sS'8522'
p5699
((lp5700
(lp5701
F70.0
aa(lp5702
F90.0
aa(lp5703
F50.0
aa(lp5704
F0.0
aF0.0
aF0.0
atp5705
sS'8521'
p5706
((lp5707
(lp5708
F89.67
aa(lp5709
F2.973
aa(lp5710
F60.189
aa(lp5711
F51.539669230769185
aF64.13440467567567
aF92.41723043396227
atp5712
sS'8689'
p5713
((lp5714
(lp5715
F0.0
aa(lp5716
F80.0
aa(lp5717
F0.0
aa(lp5718
F0.0
aF0.0
aI0
atp5719
sS'8130'
p5720
((lp5721
(lp5722
F83.846
aa(lp5723
F-0.0
aa(lp5724
F40.0
aa(lp5725
F77.51479292307698
aF0.0
aF100.0
atp5726
sS'8468'
p5727
((lp5728
(lp5729
F90.0
aa(lp5730
F80.0
aa(lp5731
F90.0
aa(lp5732
F0.0
aF0.0
aI0
atp5733
sS'8132'
p5734
((lp5735
(lp5736
F63.465
aa(lp5737
F6.429
aa(lp5738
F89.91
aa(lp5739
F87.99137351485149
aF151.5306124285714
aF0.892784684684684
atp5740
sS'8133'
p5741
((lp5742
(lp5743
F90.0
aa(lp5744
F80.0
aa(lp5745
F90.0
aa(lp5746
F0.0
aF0.0
aI0
atp5747
sS'8703'
p5748
((lp5749
(lp5750
F90.0
aa(lp5751
F50.0
aa(lp5752
F76.667
aa(lp5753
F0.0
aF0.0
aF22.222222333333335
atp5754
sS'8469'
p5755
((lp5756
(lp5757
F90.0
aa(lp5758
F80.0
aa(lp5759
F100.0
aa(lp5760
F0.0
aF0.0
aF0.0
atp5761
sS'8700'
p5762
((lp5763
(lp5764
F90.0
aa(lp5765
F0.0
aa(lp5766
F90.0
aa(lp5767
F0.0
aF0.0
aI0
atp5768
sS'8520'
p5769
((lp5770
(lp5771
F0.0
aa(lp5772
F89.912
aa(lp5773
F70.0
aa(lp5774
F0.0
aF0.869498385964914
aF0.0
atp5775
sS'8706'
p5776
((lp5777
(lp5778
F0.0
aa(lp5779
F86.296
aa(lp5780
F50.0
aa(lp5781
F0.0
aF30.7270234074074
aF0.0
atp5782
sS'8941'
p5783
((lp5784
(lp5785
F90.0
aa(lp5786
F0.0
aa(lp5787
F80.0
aa(lp5788
F0.0
aF0.0
aF0.0
atp5789
sS'8147'
p5790
((lp5791
(lp5792
F90.217
aa(lp5793
F40.0
aa(lp5794
F71.0
aa(lp5795
F2.1266542173913043
aF100.0
aF4.0
atp5796
sS'8193'
p5797
((lp5798
(lp5799
F87.667
aa(lp5800
F-0.0
aa(lp5801
F32.5
aa(lp5802
F37.88888899999998
aF0.0
aF43.75
atp5803
sS'8390'
p5804
((lp5805
(lp5806
F10.0
aa(lp5807
F90.0
aa(lp5808
F10.0
aa(lp5809
F0.0
aF0.0
aI0
atp5810
sS'8943'
p5811
((lp5812
(lp5813
F85.846
aa(lp5814
F43.333
aa(lp5815
F0.0
aa(lp5816
F61.20710061538471
aF88.88888900000003
aF0.0
atp5817
sS'8457'
p5818
((lp5819
(lp5820
F90.0
aa(lp5821
F80.0
aa(lp5822
F80.0
aa(lp5823
F0.0
aF0.0
aI0
atp5824
sS'8456'
p5825
((lp5826
(lp5827
F80.0
aa(lp5828
F90.0
aa(lp5829
F90.0
aa(lp5830
F0.0
aF0.0
aI0
atp5831
sS'8455'
p5832
((lp5833
(lp5834
F90.0
aa(lp5835
F90.0
aa(lp5836
F90.0
aa(lp5837
F0.0
aI0
aI0
atp5838
sS'8454'
p5839
((lp5840
(lp5841
F-0.0
aa(lp5842
F83.85
aa(lp5843
F38.088
aa(lp5844
F0.0
aF83.85347345132733
aF96.3451557647058
atp5845
sS'8453'
p5846
((lp5847
(lp5848
F42.562
aa(lp5849
F82.247
aa(lp5850
F0.0
aa(lp5851
F93.43624069421506
aF91.57934607865157
aF0.0
atp5852
sS'8452'
p5853
((lp5854
(lp5855
F80.0
aa(lp5856
F90.0
aa(lp5857
F90.0
aa(lp5858
F0.0
aF0.0
aI0
atp5859
sS'8057'
p5860
((lp5861
(lp5862
F90.0
aa(lp5863
F80.0
aa(lp5864
F80.0
aa(lp5865
F0.0
aF0.0
aI0
atp5866
sS'8450'
p5867
((lp5868
(lp5869
F56.667
aa(lp5870
F0.0
aa(lp5871
F89.608
aa(lp5872
F88.88888899999999
aF0.0
aF3.7677816470588197
atp5873
sS'8350'
p5874
((lp5875
(lp5876
F71.231
aa(lp5877
F2.5
aa(lp5878
F94.245
aa(lp5879
F96.94674561538454
aF58.75
aF24.430402358490607
atp5880
sS'8945'
p5881
((lp5882
(lp5883
F80.0
aa(lp5884
F90.0
aa(lp5885
F90.0
aa(lp5886
F0.0
aF0.0
aI0
atp5887
sS'8352'
p5888
((lp5889
(lp5890
F90.0
aa(lp5891
F80.0
aa(lp5892
F90.0
aa(lp5893
F0.0
aF0.0
aI0
atp5894
sS'8353'
p5895
((lp5896
(lp5897
F80.0
aa(lp5898
F90.0
aa(lp5899
F67.143
aa(lp5900
F0.0
aF0.0
aF48.97959185714284
atp5901
sS'8354'
p5902
((lp5903
(lp5904
F90.0
aa(lp5905
F90.0
aa(lp5906
F90.0
aa(lp5907
F0.0
aI0
aI0
atp5908
sS'8355'
p5909
((lp5910
(lp5911
F86.148
aa(lp5912
F-0.0
aa(lp5913
F42.83
aa(lp5914
F61.388067934426225
aF0.0
aF91.99003207547173
atp5915
sS'8459'
p5916
((lp5917
(lp5918
F35.812
aa(lp5919
F74.0
aa(lp5920
F-0.0
aa(lp5921
F82.46036964102561
aF56.72727272727273
aF0.0
atp5922
sS'8458'
p5923
((lp5924
(lp5925
F70.16
aa(lp5926
F0.655
aa(lp5927
F93.456
aa(lp5928
F119.2544
aF12.019025000000017
aF25.33628894117649
atp5929
sS'8956'
p5930
((lp5931
(lp5932
F100.0
aa(lp5933
F90.0
aa(lp5934
F97.0
aa(lp5935
F0.0
aF0.0
aF1.0
atp5936
sS'8957'
p5937
((lp5938
(lp5939
F87.5
aa(lp5940
F30.0
aa(lp5941
F0.0
aa(lp5942
F28.75
aF0.0
aF0.0
atp5943
sS'8954'
p5944
((lp5945
(lp5946
F90.0
aa(lp5947
F80.0
aa(lp5948
F90.0
aa(lp5949
F0.0
aF0.0
aI0
atp5950
sS'8708'
p5951
((lp5952
(lp5953
F85.417
aa(lp5954
F0.0
aa(lp5955
F45.714
aa(lp5956
F70.65972233333338
aF0.0
aF67.34693885714289
atp5957
sS'8952'
p5958
((lp5959
(lp5960
F90.0
aa(lp5961
F80.0
aa(lp5962
F90.0
aa(lp5963
F0.0
aF0.0
aI0
atp5964
sS'8953'
p5965
((lp5966
(lp5967
F-0.0
aa(lp5968
F89.187
aa(lp5969
F37.292
aa(lp5970
F0.0
aF12.464844000000017
aF92.66493066666669
atp5971
sS'8899'
p5972
((lp5973
(lp5974
F86.875
aa(lp5975
F0.0
aa(lp5976
F31.667
aa(lp5977
F21.484375
aF0.0
aF30.555555666666667
atp5978
sS'8951'
p5979
((lp5980
(lp5981
F90.0
aa(lp5982
F80.0
aa(lp5983
F90.0
aa(lp5984
F0.0
aF0.0
aI0
atp5985
sS'8897'
p5986
((lp5987
(lp5988
F90.0
aa(lp5989
F90.0
aa(lp5990
F90.0
aa(lp5991
F0.0
aI0
aI0
atp5992
sS'8896'
p5993
((lp5994
(lp5995
F80.0
aa(lp5996
F0.0
aa(lp5997
F90.0
aa(lp5998
F0.0
aF0.0
aF0.0
atp5999
sS'8895'
p6000
((lp6001
(lp6002
F80.0
aa(lp6003
F90.0
aa(lp6004
F90.0
aa(lp6005
F0.0
aF0.0
aI0
atp6006
sS'8946'
p6007
((lp6008
(lp6009
F83.289
aa(lp6010
F43.919
aa(lp6011
F0.0
aa(lp6012
F89.18517200671106
aF84.64207451351348
aF0.0
atp6013
sS'8893'
p6014
((lp6015
(lp6016
F75.0
aa(lp6017
F50.0
aa(lp6018
F90.0
aa(lp6019
F25.0
aF0.0
aF0.0
atp6020
sS'8892'
p6021
((lp6022
(lp6023
F90.22
aa(lp6024
F0.0
aa(lp6025
F37.143
aa(lp6026
F32.91872967032966
aF0.0
aF91.83673471428574
atp6027
sS'8958'
p6028
((lp6029
(lp6030
F80.0
aa(lp6031
F90.0
aa(lp6032
F90.0
aa(lp6033
F0.0
aF0.0
aI0
atp6034
sS'8959'
p6035
((lp6036
(lp6037
F-0.0
aa(lp6038
F90.0
aa(lp6039
F40.0
aa(lp6040
F0.0
aF0.0
aF100.0
atp6041
sS'8418'
p6042
((lp6043
(lp6044
F85.161
aa(lp6045
F0.0
aa(lp6046
F33.81
aa(lp6047
F72.28581347311822
aF0.0
aF61.67800476190469
atp6048
sS'8056'
p6049
((lp6050
(lp6051
F61.429
aa(lp6052
F30.0
aa(lp6053
F90.0
aa(lp6054
F97.95918385714288
aF0.0
aF0.0
atp6055
sS'8008'
p6056
((lp6057
(lp6058
F90.0
aa(lp6059
F80.0
aa(lp6060
F90.0
aa(lp6061
F0.0
aF0.0
aI0
atp6062
sS'8009'
p6063
((lp6064
(lp6065
F92.143
aa(lp6066
F0.185
aa(lp6067
F46.19
aa(lp6068
F79.08163267346939
aF1.817558333333335
aF61.678004761904745
atp6069
sS'8791'
p6070
((lp6071
(lp6072
F90.0
aa(lp6073
F30.0
aa(lp6074
F78.889
aa(lp6075
F0.0
aF0.0
aF9.876543222222221
atp6076
sS'8544'
p6077
((lp6078
(lp6079
F88.158
aa(lp6080
F37.692
aa(lp6081
F0.0
aa(lp6082
F25.554016631578957
aF94.67455630769231
aF0.0
atp6083
sS'8711'
p6084
((lp6085
(lp6086
F90.0
aa(lp6087
F80.0
aa(lp6088
F100.0
aa(lp6089
F0.0
aF0.0
aF0.0
atp6090
sS'8004'
p6091
((lp6092
(lp6093
F90.0
aa(lp6094
F80.0
aa(lp6095
F90.0
aa(lp6096
F0.0
aF0.0
aI0
atp6097
sS'8005'
p6098
((lp6099
(lp6100
F88.448
aa(lp6101
F44.286
aa(lp6102
F0.0
aa(lp6103
F26.902497103448226
aF81.63265314285715
aF0.0
atp6104
sS'8411'
p6105
((lp6106
(lp6107
F35.17
aa(lp6108
F0.0
aa(lp6109
F76.9
aa(lp6110
F76.67175714285645
aF0.0
aF89.38999999999987
atp6111
sS'8792'
p6112
((lp6113
(lp6114
F90.0
aa(lp6115
F0.0
aa(lp6116
F80.0
aa(lp6117
F0.0
aF0.0
aF0.0
atp6118
sS'8547'
p6119
((lp6120
(lp6121
F90.0
aa(lp6122
F50.0
aa(lp6123
F70.0
aa(lp6124
F0.0
aF0.0
aF0.0
atp6125
sS'8410'
p6126
((lp6127
(lp6128
F80.0
aa(lp6129
F90.0
aa(lp6130
F80.0
aa(lp6131
F0.0
aF0.0
aI0
atp6132
sS'8001'
p6133
((lp6134
(lp6135
F90.0
aa(lp6136
F90.0
aa(lp6137
F90.0
aa(lp6138
F0.0
aI0
aI0
atp6139
sS'8822'
p6140
((lp6141
(lp6142
F100.0
aa(lp6143
F50.0
aa(lp6144
F0.0
aa(lp6145
F0.0
aF0.0
aF0.0
atp6146
sS'8823'
p6147
((lp6148
(lp6149
F89.89
aa(lp6150
F0.233
aa(lp6151
F43.636
aa(lp6152
F2.1857263736263217
aF2.27149830232557
aF86.77685963636362
atp6153
sS'8820'
p6154
((lp6155
(lp6156
F0.0
aa(lp6157
F72.703
aa(lp6158
F41.0
aa(lp6159
F0.0
aF46.74945224324321
aF99.0
atp6160
sS'8821'
p6161
((lp6162
(lp6163
F90.0
aa(lp6164
F80.0
aa(lp6165
F90.0
aa(lp6166
F0.0
aF0.0
aI0
atp6167
sS'8826'
p6168
((lp6169
(lp6170
F70.442
aa(lp6171
F93.349
aa(lp6172
F42.114
aa(lp6173
F11.969846142857184
aF26.227275626865698
aF253.09170076190503
atp6174
sS'8827'
p6175
((lp6176
(lp6177
F90.0
aa(lp6178
F-0.0
aa(lp6179
F50.0
aa(lp6180
F0.0
aF0.0
aF0.0
atp6181
sS'8824'
p6182
((lp6183
(lp6184
F76.75
aa(lp6185
F0.0
aa(lp6186
F42.618
aa(lp6187
F81.9375
aF0.0
aF93.1459411673818
atp6188
sS'8825'
p6189
((lp6190
(lp6191
F90.0
aa(lp6192
F10.0
aa(lp6193
F70.0
aa(lp6194
F0.0
aF0.0
aF0.0
atp6195
sS'8828'
p6196
((lp6197
(lp6198
F85.0
aa(lp6199
F-0.0
aa(lp6200
F37.5
aa(lp6201
F75.0
aF0.0
aF93.75
atp6202
sS'8829'
p6203
((lp6204
(lp6205
F0.0
aa(lp6206
F84.8
aa(lp6207
F34.545
aa(lp6208
F0.0
aF56.96000000000001
aF70.24793409090907
atp6209
sS'8778'
p6210
((lp6211
(lp6212
F80.0
aa(lp6213
F0.0
aa(lp6214
F90.0
aa(lp6215
F0.0
aF0.0
aF0.0
atp6216
sS'8779'
p6217
((lp6218
(lp6219
F90.645
aa(lp6220
F80.0
aa(lp6221
F58.0
aa(lp6222
F6.035379838709673
aF0.0
aF0.0
atp6223
sS'8537'
p6224
((lp6225
(lp6226
F80.0
aa(lp6227
F90.0
aa(lp6228
F90.0
aa(lp6229
F0.0
aF0.0
aI0
atp6230
sS'8772'
p6231
((lp6232
(lp6233
F88.571
aa(lp6234
F0.0
aa(lp6235
F100.0
aa(lp6236
F12.244898142857144
aF0.0
aF0.0
atp6237
sS'8773'
p6238
((lp6239
(lp6240
F70.0
aa(lp6241
F41.905
aa(lp6242
F90.0
aa(lp6243
F0.0
aF167.8004535714286
aF0.0
atp6244
sS'8770'
p6245
((lp6246
(lp6247
F6.685
aa(lp6248
F71.958
aa(lp6249
F35.769
aa(lp6250
F52.82419767759539
aF149.00868066666672
aF68.66103132967032
atp6251
sS'8771'
p6252
((lp6253
(lp6254
F26.429
aa(lp6255
F80.508
aa(lp6256
F50.0
aa(lp6257
F94.38775528571433
aF99.74145383050839
aF0.0
atp6258
sS'8776'
p6259
((lp6260
(lp6261
F90.0
aa(lp6262
F80.0
aa(lp6263
F90.0
aa(lp6264
F0.0
aF0.0
aI0
atp6265
sS'8777'
p6266
((lp6267
(lp6268
F99.185
aa(lp6269
F0.0
aa(lp6270
F49.167
aa(lp6271
F17.262002777777777
aF0.0
aF153.47222233333332
atp6272
sS'8774'
p6273
((lp6274
(lp6275
F40.137
aa(lp6276
F-0.0
aa(lp6277
F75.556
aa(lp6278
F99.98123475342457
aF0.0
aF54.32098785185188
atp6279
sS'8775'
p6280
((lp6281
(lp6282
F0.073
aa(lp6283
F40.621
aa(lp6284
F74.886
aa(lp6285
F1.4466357150634948
aF98.23543410344854
aF84.07799600000004
atp6286
sS'8541'
p6287
((lp6288
(lp6289
F4.687
aa(lp6290
F65.714
aa(lp6291
F89.259
aa(lp6292
F118.65234399999987
aF67.34693885714283
aF6.858710629629631
atp6293
sS'8683'
p6294
((lp6295
(lp6296
F0.0
aa(lp6297
F80.0
aa(lp6298
F39.714
aa(lp6299
F0.0
aF95.0
aF99.91836742857147
atp6300
sS'8863'
p6301
((lp6302
(lp6303
F90.0
aa(lp6304
F80.0
aa(lp6305
F100.0
aa(lp6306
F0.0
aF0.0
aF0.0
atp6307
sS'8681'
p6308
((lp6309
(lp6310
F0.0
aa(lp6311
F82.941
aa(lp6312
F36.667
aa(lp6313
F0.0
aF91.34948100000001
aF88.88888899999999
atp6314
sS'8686'
p6315
((lp6316
(lp6317
F88.421
aa(lp6318
F0.0
aa(lp6319
F30.0
aa(lp6320
F23.822714684210524
aF0.0
aF0.0
atp6321
sS'8540'
p6322
((lp6323
(lp6324
F63.448
aa(lp6325
F5.625
aa(lp6326
F90.0
aa(lp6327
F88.10939365517238
aF137.109375
aF0.0
atp6328
sS'8687'
p6329
((lp6330
(lp6331
F94.627
aa(lp6332
F20.0
aa(lp6333
F59.8
aa(lp6334
F30.13214594915256
aF200.0
aF104.75999999999996
atp6335
sS'8079'
p6336
((lp6337
(lp6338
F86.289
aa(lp6339
F0.0
aa(lp6340
F45.556
aa(lp6341
F37.77234574226807
aF0.0
aF69.1358026666667
atp6342
sS'8078'
p6343
((lp6344
(lp6345
F80.0
aa(lp6346
F50.0
aa(lp6347
F30.0
aa(lp6348
F33.333333333333336
aF0.0
aF0.0
atp6349
sS'8172'
p6350
((lp6351
(lp6352
F67.614
aa(lp6353
F87.309
aa(lp6354
F21.032
aa(lp6355
F52.44163236363634
aF41.40628099999991
aF213.12799174193555
atp6356
sS'8173'
p6357
((lp6358
(lp6359
F81.543
aa(lp6360
F0.149
aa(lp6361
F51.824
aa(lp6362
F57.83774986956529
aF2.0206099347079003
aF97.97830933333336
atp6363
sS'8174'
p6364
((lp6365
(lp6366
F90.0
aa(lp6367
F80.0
aa(lp6368
F90.0
aa(lp6369
F0.0
aF0.0
aI0
atp6370
sS'8175'
p6371
((lp6372
(lp6373
F90.0
aa(lp6374
F0.0
aa(lp6375
F100.0
aa(lp6376
F0.0
aF0.0
aF0.0
atp6377
sS'8176'
p6378
((lp6379
(lp6380
F90.0
aa(lp6381
F90.0
aa(lp6382
F90.0
aa(lp6383
F0.0
aI0
aI0
atp6384
sS'8177'
p6385
((lp6386
(lp6387
F90.0
aa(lp6388
F80.0
aa(lp6389
F90.0
aa(lp6390
F0.0
aF0.0
aI0
atp6391
sS'8071'
p6392
((lp6393
(lp6394
F0.167
aa(lp6395
F90.539
aa(lp6396
F38.136
aa(lp6397
F1.419590754385956
aF94.31708962745108
aF99.9138180338983
atp6398
sS'8070'
p6399
((lp6400
(lp6401
F57.5
aa(lp6402
F0.0
aa(lp6403
F30.0
aa(lp6404
F128.05232558139534
aF0.0
aF0.0
atp6405
sS'8073'
p6406
((lp6407
(lp6408
F88.046
aa(lp6409
F37.976
aa(lp6410
F0.0
aa(lp6411
F33.490298741117016
aF95.90419504761914
aF0.0
atp6412
sS'8072'
p6413
((lp6414
(lp6415
F90.0
aa(lp6416
F80.0
aa(lp6417
F90.0
aa(lp6418
F0.0
aF0.0
aI0
atp6419
sS'8075'
p6420
((lp6421
(lp6422
F81.538
aa(lp6423
F0.0
aa(lp6424
F45.814
aa(lp6425
F87.14362581818187
aF0.0
aF66.19794483720923
atp6426
sS'8074'
p6427
((lp6428
(lp6429
F60.267
aa(lp6430
F89.909
aa(lp6431
F24.419
aa(lp6432
F99.92850825133661
aF0.8992065898366647
aF136.28988658139525
atp6433
sS'8077'
p6434
((lp6435
(lp6436
F90.0
aa(lp6437
F80.0
aa(lp6438
F90.0
aa(lp6439
F0.0
aF0.0
aI0
atp6440
sS'8076'
p6441
((lp6442
(lp6443
F25.161
aa(lp6444
F79.0
aa(lp6445
F50.0
aa(lp6446
F121.74817906451611
aF42.333333333333336
aF0.0
atp6447
sS'8523'
p6448
((lp6449
(lp6450
F90.0
aa(lp6451
F79.704
aa(lp6452
F59.0
aa(lp6453
F0.0
aF2.282578962962963
aF0.0
atp6454
sS'8170'
p6455
((lp6456
(lp6457
F-0.0
aa(lp6458
F90.0
aa(lp6459
F0.0
aa(lp6460
I0
aF0.0
aF0.0
atp6461
sS'8279'
p6462
((lp6463
(lp6464
F90.0
aa(lp6465
F80.0
aa(lp6466
F80.0
aa(lp6467
F0.0
aF0.0
aI0
atp6468
sS'8135'
p6469
((lp6470
(lp6471
F90.0
aa(lp6472
F80.0
aa(lp6473
F90.0
aa(lp6474
F0.0
aF0.0
aI0
atp6475
sS'8277'
p6476
((lp6477
(lp6478
F90.0
aa(lp6479
F80.0
aa(lp6480
F90.0
aa(lp6481
F0.0
aF0.0
aI0
atp6482
sS'8276'
p6483
((lp6484
(lp6485
F81.351
aa(lp6486
F42.308
aa(lp6487
F-0.0
aa(lp6488
F92.76844424324332
aF94.67455630769224
aF0.0
atp6489
sS'8988'
p6490
((lp6491
(lp6492
F0.0
aa(lp6493
F87.059
aa(lp6494
F40.714
aa(lp6495
F0.0
aF50.1730104117647
aF99.48979600000004
atp6496
sS'8274'
p6497
((lp6498
(lp6499
F90.0
aa(lp6500
F80.0
aa(lp6501
F90.0
aa(lp6502
I0
aF0.0
aF0.0
atp6503
sS'8273'
p6504
((lp6505
(lp6506
F57.273
aa(lp6507
F86.923
aa(lp6508
F27.0
aa(lp6509
F92.56198354545454
aF21.301775153846165
aF81.0
atp6510
sS'8136'
p6511
((lp6512
(lp6513
F-0.0
aa(lp6514
F85.217
aa(lp6515
F34.211
aa(lp6516
F0.0
aF68.43100204347829
aF66.4819946842105
atp6517
sS'8271'
p6518
((lp6519
(lp6520
F96.471
aa(lp6521
F0.044
aa(lp6522
F40.125
aa(lp6523
F22.8373704117647
aF0.042171294117647015
aF39.484375
atp6524
sS'8609'
p6525
((lp6526
(lp6527
F90.0
aa(lp6528
F80.0
aa(lp6529
F90.0
aa(lp6530
F0.0
aF0.0
aI0
atp6531
sS'8137'
p6532
((lp6533
(lp6534
F89.754
aa(lp6535
F15.0
aa(lp6536
F66.333
aa(lp6537
F2.3985487868852506
aF225.0
aF57.555555666666685
atp6538
sS'8103'
p6539
((lp6540
(lp6541
F90.0
aa(lp6542
F80.0
aa(lp6543
F90.0
aa(lp6544
F0.0
aF0.0
aI0
atp6545
sS'8637'
p6546
((lp6547
(lp6548
F57.93
aa(lp6549
F90.814
aa(lp6550
F24.803
aa(lp6551
F92.5651
aF41.779795999999976
aF121.82027378873238
atp6552
sS'8527'
p6553
((lp6554
(lp6555
F90.0
aa(lp6556
F80.0
aa(lp6557
F70.0
aa(lp6558
F0.0
aF0.0
aF0.0
atp6559
sS'8102'
p6560
((lp6561
(lp6562
F90.0
aa(lp6563
F80.0
aa(lp6564
F80.0
aa(lp6565
F0.0
aF0.0
aI0
atp6566
sS'8131'
p6567
((lp6568
(lp6569
F90.0
aa(lp6570
F80.0
aa(lp6571
F100.0
aa(lp6572
F0.0
aF0.0
aF0.0
atp6573
sS'8673'
p6574
((lp6575
(lp6576
F90.0
aa(lp6577
F80.0
aa(lp6578
F100.0
aa(lp6579
F0.0
aF0.0
aF0.0
atp6580
sS'8672'
p6581
((lp6582
(lp6583
F99.17
aa(lp6584
F4.714
aa(lp6585
F77.714
aa(lp6586
F7.1598433962264085
aF64.2040817142857
aF25.632653142857144
atp6587
sS'8671'
p6588
((lp6589
(lp6590
F50.0
aa(lp6591
F89.231
aa(lp6592
F30.0
aa(lp6593
F0.0
aF14.79289946153846
aF0.0
atp6594
sS'8670'
p6595
((lp6596
(lp6597
F0.0
aa(lp6598
F90.0
aa(lp6599
F67.143
aa(lp6600
F0.0
aF0.0
aF48.97959185714285
atp6601
sS'8677'
p6602
((lp6603
(lp6604
F59.444
aa(lp6605
F1.151
aa(lp6606
F30.135
aa(lp6607
F86.01614454700886
aF10.187865066852495
aF66.04923623595487
atp6608
sS'8676'
p6609
((lp6610
(lp6611
F86.174
aa(lp6612
F37.647
aa(lp6613
F0.0
aa(lp6614
F44.491493391304346
aF94.46366782352939
aF0.0
atp6615
sS'8797'
p6616
((lp6617
(lp6618
F90.0
aa(lp6619
F80.0
aa(lp6620
F90.0
aa(lp6621
F0.0
aF0.0
aI0
atp6622
sS'8674'
p6623
((lp6624
(lp6625
F89.685
aa(lp6626
F2.5
aa(lp6627
F62.308
aa(lp6628
F3.0504061023622
aF68.75
aF94.67455630769231
atp6629
sS'8542'
p6630
((lp6631
(lp6632
F35.919
aa(lp6633
F80.069
aa(lp6634
F0.0
aa(lp6635
F83.34774485650244
aF99.99524375862042
aF0.0
atp6636
sS'8679'
p6637
((lp6638
(lp6639
F81.632
aa(lp6640
F0.0
aa(lp6641
F39.401
aa(lp6642
F97.7604312639216
aF0.0
aF99.796590473684
atp6643
sS'8678'
p6644
((lp6645
(lp6646
F41.165
aa(lp6647
F0.0
aa(lp6648
F83.092
aa(lp6649
F98.6426618932041
aF0.0
aF90.18849392518713
atp6650
sS'8264'
p6651
((lp6652
(lp6653
F88.947
aa(lp6654
F0.0
aa(lp6655
F50.0
aa(lp6656
F9.418282684210533
aF0.0
aF0.0
atp6657
sS'8398'
p6658
((lp6659
(lp6660
F90.0
aa(lp6661
F80.0
aa(lp6662
F90.0
aa(lp6663
F0.0
aF0.0
aI0
atp6664
sS'8399'
p6665
((lp6666
(lp6667
F-0.0
aa(lp6668
F41.064
aa(lp6669
F82.174
aa(lp6670
F0.0
aF98.86826621276597
aF95.2741020869565
atp6671
sS'8636'
p6672
((lp6673
(lp6674
F80.0
aa(lp6675
F90.0
aa(lp6676
F80.0
aa(lp6677
F0.0
aF0.0
aI0
atp6678
sS'8394'
p6679
((lp6680
(lp6681
F90.0
aa(lp6682
F80.0
aa(lp6683
F90.0
aa(lp6684
F0.0
aF0.0
aI0
atp6685
sS'8395'
p6686
((lp6687
(lp6688
F90.0
aa(lp6689
F90.0
aa(lp6690
F90.0
aa(lp6691
F0.0
aI0
aI0
atp6692
sS'8396'
p6693
((lp6694
(lp6695
F80.0
aa(lp6696
F90.0
aa(lp6697
F100.0
aa(lp6698
F0.0
aF0.0
aF0.0
atp6699
sS'8397'
p6700
((lp6701
(lp6702
F90.0
aa(lp6703
F0.0
aa(lp6704
F90.0
aa(lp6705
F0.0
aF0.0
aI0
atp6706
sS'8980'
p6707
((lp6708
(lp6709
F90.303
aa(lp6710
F0.0
aa(lp6711
F54.0
aa(lp6712
F10.514233242424254
aF0.0
aF64.0
atp6713
sS'8391'
p6714
((lp6715
(lp6716
F46.0
aa(lp6717
F82.083
aa(lp6718
F0.0
aa(lp6719
F64.0
aF83.15972233333329
aF0.0
atp6720
sS'8392'
p6721
((lp6722
(lp6723
F88.648
aa(lp6724
F-0.0
aa(lp6725
F45.0
aa(lp6726
F24.400363016393342
aF0.0
aF75.0
atp6727
sS'8393'
p6728
((lp6729
(lp6730
F75.439
aa(lp6731
F-0.0
aa(lp6732
F49.574
aa(lp6733
F77.43921222807015
aF0.0
aF8.329561106382954
atp6734
sS'8552'
p6735
((lp6736
(lp6737
F90.0
aa(lp6738
F80.0
aa(lp6739
F90.0
aa(lp6740
F0.0
aF0.0
aI0
atp6741
sS'8553'
p6742
((lp6743
(lp6744
F90.0
aa(lp6745
F80.0
aa(lp6746
F90.0
aa(lp6747
F0.0
aF0.0
aI0
atp6748
sS'8550'
p6749
((lp6750
(lp6751
F2.727
aa(lp6752
F65.385
aa(lp6753
F90.0
aa(lp6754
F74.38016536363635
aF71.00591730769233
aF0.0
atp6755
sS'8551'
p6756
((lp6757
(lp6758
F0.0
aa(lp6759
F90.0
aa(lp6760
F0.0
aa(lp6761
F0.0
aF0.0
aI0
atp6762
sS'8556'
p6763
((lp6764
(lp6765
F-0.0
aa(lp6766
F89.817
aa(lp6767
F41.429
aa(lp6768
F0.0
aF3.6360578073394256
aF97.95918385714288
atp6769
sS'8557'
p6770
((lp6771
(lp6772
F50.0
aa(lp6773
F21.563
aa(lp6774
F73.651
aa(lp6775
F0.0
aF181.93359400000008
aF29.52884861904758
atp6776
sS'8554'
p6777
((lp6778
(lp6779
F82.807
aa(lp6780
F37.317
aa(lp6781
F-0.0
aa(lp6782
F79.83995075438591
aF92.80190363414638
aF0.0
atp6783
sS'8555'
p6784
((lp6785
(lp6786
F86.216
aa(lp6787
F38.0
aa(lp6788
F0.0
aa(lp6789
F23.52081816216216
aF96.0
aF0.0
atp6790
sS'8413'
p6791
((lp6792
(lp6793
F90.0
aa(lp6794
F80.0
aa(lp6795
F100.0
aa(lp6796
F0.0
aF0.0
aF0.0
atp6797
sS'8412'
p6798
((lp6799
(lp6800
F90.0
aa(lp6801
F80.0
aa(lp6802
F90.0
aa(lp6803
F0.0
aF0.0
aI0
atp6804
sS'8558'
p6805
((lp6806
(lp6807
F90.0
aa(lp6808
F80.0
aa(lp6809
F90.0
aa(lp6810
F0.0
aF0.0
aI0
atp6811
sS'8559'
p6812
((lp6813
(lp6814
F90.0
aa(lp6815
F47.143
aa(lp6816
F70.0
aa(lp6817
F0.0
aF48.97959185714286
aF0.0
atp6818
sS'8417'
p6819
((lp6820
(lp6821
F55.0
aa(lp6822
F12.857
aa(lp6823
F90.0
aa(lp6824
F75.0
aF48.97959185714285
aF0.0
atp6825
sS'8416'
p6826
((lp6827
(lp6828
F90.145
aa(lp6829
F0.0
aa(lp6830
F78.5
aa(lp6831
F1.4282713768115909
aF0.0
aF29.25
atp6832
sS'8415'
p6833
((lp6834
(lp6835
F89.024
aa(lp6836
F46.0
aa(lp6837
F0.0
aa(lp6838
F8.804283317073184
aF64.0
aF0.0
atp6839
sS'8414'
p6840
((lp6841
(lp6842
F90.0
aa(lp6843
F80.0
aa(lp6844
F90.0
aa(lp6845
F0.0
aF0.0
aI0
atp6846
sS'8998'
p6847
((lp6848
(lp6849
F90.0
aa(lp6850
F30.0
aa(lp6851
F0.0
aa(lp6852
F0.0
aF0.0
aF0.0
atp6853
sS'8999'
p6854
((lp6855
(lp6856
F80.0
aa(lp6857
F28.333
aa(lp6858
F50.0
aa(lp6859
F92.3076923076923
aF47.22222233333338
aF0.0
atp6860
sS'8688'
p6861
((lp6862
(lp6863
F98.933
aa(lp6864
F45.0
aa(lp6865
F0.0
aa(lp6866
F14.862222333333309
aF25.0
aF0.0
atp6867
sS'8992'
p6868
((lp6869
(lp6870
F19.236
aa(lp6871
F90.179
aa(lp6872
F62.944
aa(lp6873
F207.05290102091652
aF2.3532097537268557
aF91.42407923143958
atp6874
sS'8993'
p6875
((lp6876
(lp6877
F41.429
aa(lp6878
F88.545
aa(lp6879
F0.0
aa(lp6880
F97.95918385714288
aF23.338843181818195
aF0.0
atp6881
sS'8990'
p6882
((lp6883
(lp6884
F89.091
aa(lp6885
F41.0
aa(lp6886
F0.0
aa(lp6887
F15.537190090909142
aF99.0
aF0.0
atp6888
sS'8991'
p6889
((lp6890
(lp6891
F0.975
aa(lp6892
F97.113
aa(lp6893
F49.968
aa(lp6894
F16.22437499999997
aF32.347203065933954
aF171.61803987301582
atp6895
sS'8996'
p6896
((lp6897
(lp6898
F90.0
aa(lp6899
F80.0
aa(lp6900
F90.0
aa(lp6901
F0.0
aF0.0
aI0
atp6902
sS'8997'
p6903
((lp6904
(lp6905
F90.0
aa(lp6906
F90.0
aa(lp6907
F90.0
aa(lp6908
F0.0
aI0
aI0
atp6909
sS'8994'
p6910
((lp6911
(lp6912
F66.923
aa(lp6913
F90.0
aa(lp6914
F18.0
aa(lp6915
F52.07100592307691
aF0.0
aF216.0
atp6916
sS'8995'
p6917
((lp6918
(lp6919
F88.023
aa(lp6920
F0.0
aa(lp6921
F38.333
aa(lp6922
F28.65062202325587
aF0.0
aF97.22222233333333
atp6923
sS'8480'
p6924
((lp6925
(lp6926
F2.308
aa(lp6927
F88.796
aa(lp6928
F65.429
aa(lp6929
F63.90532553846151
aF12.439986370370343
aF70.53061242857144
atp6930
sS'8481'
p6931
((lp6932
(lp6933
F90.0
aa(lp6934
F80.0
aa(lp6935
F90.0
aa(lp6936
F0.0
aF0.0
aI0
atp6937
sS'8482'
p6938
((lp6939
(lp6940
F81.273
aa(lp6941
F0.442
aa(lp6942
F41.538
aa(lp6943
F98.38016536363666
aF4.2289923185840665
aF97.63313630769231
atp6944
sS'8483'
p6945
((lp6946
(lp6947
F99.39
aa(lp6948
F0.526
aa(lp6949
F86.027
aa(lp6950
F2.4518860962566937
aF10.249307578947372
aF54.54881909009007
atp6951
sS'8484'
p6952
((lp6953
(lp6954
F80.0
aa(lp6955
F90.0
aa(lp6956
F80.0
aa(lp6957
F0.0
aF0.0
aI0
atp6958
sS'8485'
p6959
((lp6960
(lp6961
F90.0
aa(lp6962
F80.0
aa(lp6963
F90.0
aa(lp6964
F0.0
aF0.0
aI0
atp6965
sS'8486'
p6966
((lp6967
(lp6968
F90.0
aa(lp6969
F80.0
aa(lp6970
F90.0
aa(lp6971
F0.0
aF0.0
aI0
atp6972
sS'8487'
p6973
((lp6974
(lp6975
F80.0
aa(lp6976
F90.0
aa(lp6977
F80.0
aa(lp6978
F0.0
aF0.0
aI0
atp6979
sS'8488'
p6980
((lp6981
(lp6982
F40.28
aa(lp6983
F0.0
aa(lp6984
F75.714
aa(lp6985
F99.9213906542058
aF0.0
aF79.95198087394954
atp6986
sS'8489'
p6987
((lp6988
(lp6989
F99.677
aa(lp6990
F82.375
aa(lp6991
F50.0
aa(lp6992
F1.5733612580645133
aF20.984375
aF100.0
atp6993
sS'8796'
p6994
((lp6995
(lp6996
F89.754
aa(lp6997
F-0.0
aa(lp6998
F34.28
aa(lp6999
F4.81087026731048
aF0.0
aF67.27971687242801
atp7000
s.